ARM GAS  C:\Users\ADMINI~1\AppData\Local\Temp\cclzuU1t.s 			page 1


   1              		.syntax unified
   2              		.cpu cortex-m0
   3              		.fpu softvfp
   4              		.eabi_attribute 20, 1
   5              		.eabi_attribute 21, 1
   6              		.eabi_attribute 23, 3
   7              		.eabi_attribute 24, 1
   8              		.eabi_attribute 25, 1
   9              		.eabi_attribute 26, 1
  10              		.eabi_attribute 30, 1
  11              		.eabi_attribute 34, 0
  12              		.eabi_attribute 18, 4
  13              		.thumb
  14              		.syntax unified
  15              		.file	"main.c"
  16              		.text
  17              	.Ltext0:
  18              		.cfi_sections	.debug_frame
  19              		.section	.text.AppCallBack,"ax",%progbits
  20              		.align	2
  21              		.global	AppCallBack
  22              		.code	16
  23              		.thumb_func
  24              		.type	AppCallBack, %function
  25              	AppCallBack:
  26              	.LFB35:
  27              		.file 1 "main.c"
   1:main.c        **** /* ========================================
   2:main.c        ****  *
   3:main.c        ****  * Copyright YOUR COMPANY, THE YEAR
   4:main.c        ****  * All Rights Reserved
   5:main.c        ****  * UNPUBLISHED, LICENSED SOFTWARE.
   6:main.c        ****  *
   7:main.c        ****  * CONFIDENTIAL AND PROPRIETARY INFORMATION
   8:main.c        ****  * WHICH IS THE PROPERTY OF your company.
   9:main.c        ****  *
  10:main.c        ****  * ========================================
  11:main.c        **** */
  12:main.c        **** #include "project.h"
  13:main.c        **** 
  14:main.c        **** #define ON              0u
  15:main.c        **** #define OFF             1u
  16:main.c        **** 
  17:main.c        **** #define DEEPSLEEP_ONLY             0u
  18:main.c        **** #define ADV_RAND_DISABLE_MASK      0x100
  19:main.c        **** #define CAPACITOR_TRIM_VALUE       0x00004355
  20:main.c        **** 
  21:main.c        **** #define ManageBlePower()            CyBle_EnterLPM(CYBLE_BLESS_DEEPSLEEP)
  22:main.c        **** 
  23:main.c        **** /******************************************************************************
  24:main.c        **** Global variables declaration
  25:main.c        **** *******************************************************************************/
  26:main.c        **** CYBLE_API_RESULT_T apiResult;
  27:main.c        **** typedef enum PowerMode_t {
  28:main.c        ****     WAKEUP_SLEEP,
  29:main.c        ****     WAKEUP_DEEPSLEEP,
  30:main.c        ****     ACTIVE,
ARM GAS  C:\Users\ADMINI~1\AppData\Local\Temp\cclzuU1t.s 			page 2


  31:main.c        ****     SLEEP,
  32:main.c        ****     DEEPSLEEP
  33:main.c        **** } PowerMode_t;
  34:main.c        **** 
  35:main.c        **** PowerMode_t applicationPower;
  36:main.c        **** 
  37:main.c        **** void AppCallBack(uint32 event, void* eventParam)
  38:main.c        **** {
  28              		.loc 1 38 0
  29              		.cfi_startproc
  30              		@ args = 0, pretend = 0, frame = 8
  31              		@ frame_needed = 0, uses_anonymous_args = 0
  32              	.LVL0:
  33 0000 10B5     		push	{r4, lr}
  34              		.cfi_def_cfa_offset 8
  35              		.cfi_offset 4, -8
  36              		.cfi_offset 14, -4
  37 0002 82B0     		sub	sp, sp, #8
  38              		.cfi_def_cfa_offset 16
  39:main.c        ****     uint32 register_value;
  40:main.c        ****     CYBLE_BLESS_CLK_CFG_PARAMS_T clockConfig;
  41:main.c        ****     
  42:main.c        ****     (void)eventParam;
  43:main.c        ****     
  44:main.c        ****     switch(event)
  39              		.loc 1 44 0
  40 0004 0128     		cmp	r0, #1
  41 0006 01D0     		beq	.L3
  42 0008 2828     		cmp	r0, #40
  43 000a 16D1     		bne	.L1
  44              	.L3:
  45:main.c        ****     {
  46:main.c        ****         case CYBLE_EVT_GAP_DEVICE_DISCONNECTED:
  47:main.c        ****         
  48:main.c        **** 		case CYBLE_EVT_STACK_ON:
  49:main.c        **** 
  50:main.c        ****             /* load capacitors on the ECO should be tuned and the tuned value
  51:main.c        ****             ** must be set in the CY_SYS_XTAL_BLERD_BB_XO_CAPTRIM_REG  */
  52:main.c        ****             CY_SYS_XTAL_BLERD_BB_XO_CAPTRIM_REG = CAPACITOR_TRIM_VALUE;    
  45              		.loc 1 52 0
  46 000c 0C4A     		ldr	r2, .L4
  47 000e 0D4B     		ldr	r3, .L4+4
  48 0010 1A60     		str	r2, [r3]
  53:main.c        ****         
  54:main.c        ****             /* Get the configured clock parameters for BLE sub-system */
  55:main.c        ****             CyBle_GetBleClockCfgParam(&clockConfig);    
  49              		.loc 1 55 0
  50 0012 01AC     		add	r4, sp, #4
  51 0014 2000     		movs	r0, r4
  52              	.LVL1:
  53 0016 FFF7FEFF 		bl	CyBle_GetBleClockCfgParam
  54              	.LVL2:
  56:main.c        ****             
  57:main.c        ****             /* Update the sleep clock inaccuracy PPM based on WCO crystal used */
  58:main.c        ****             /* If you see frequent link disconnection, tune your WCO or update the sleep clock accu
  59:main.c        ****             clockConfig.bleLlSca =   CYBLE_LL_SCA_000_TO_020_PPM;
  55              		.loc 1 59 0
ARM GAS  C:\Users\ADMINI~1\AppData\Local\Temp\cclzuU1t.s 			page 3


  56 001a 0723     		movs	r3, #7
  57 001c 2370     		strb	r3, [r4]
  60:main.c        ****             
  61:main.c        ****             /* set the clock configuration parameter of BLE sub-system with updated values*/
  62:main.c        ****             CyBle_SetBleClockCfgParam(&clockConfig);
  58              		.loc 1 62 0
  59 001e 2000     		movs	r0, r4
  60 0020 FFF7FEFF 		bl	CyBle_SetBleClockCfgParam
  61              	.LVL3:
  63:main.c        ****             
  64:main.c        ****             /* Disable randomization of advertisment interval in CYREG_BLE_BLELL_ADV_CONFIG registe
  65:main.c        ****             ** This is for current measurement ONLY to ensure the BLE component uses fixed advertis
  66:main.c        ****             ** Interval. This code should not be used in production builds */
  67:main.c        ****     
  68:main.c        ****             register_value = CY_GET_XTND_REG32(CYREG_BLE_BLELL_ADV_CONFIG);
  62              		.loc 1 68 0
  63 0024 084A     		ldr	r2, .L4+8
  64 0026 1368     		ldr	r3, [r2]
  65              	.LVL4:
  69:main.c        ****             register_value |= ADV_RAND_DISABLE_MASK;
  66              		.loc 1 69 0
  67 0028 8021     		movs	r1, #128
  68 002a 4900     		lsls	r1, r1, #1
  69 002c 0B43     		orrs	r3, r1
  70              	.LVL5:
  70:main.c        ****             CY_SET_XTND_REG32(CYREG_BLE_BLELL_ADV_CONFIG, register_value);
  71              		.loc 1 70 0
  72 002e 1360     		str	r3, [r2]
  71:main.c        ****             
  72:main.c        ****             /* Put the device into discoverable mode so that a central device can connect to it */
  73:main.c        ****             apiResult = CyBle_GappStartAdvertisement(CYBLE_ADVERTISING_FAST);
  73              		.loc 1 73 0
  74 0030 0020     		movs	r0, #0
  75 0032 FFF7FEFF 		bl	CyBle_GappStartAdvertisement
  76              	.LVL6:
  77 0036 054B     		ldr	r3, .L4+12
  78 0038 1880     		strh	r0, [r3]
  79              	.L1:
  74:main.c        ****             break;
  75:main.c        ****             
  76:main.c        ****         default:
  77:main.c        ****             break;
  78:main.c        ****     }
  79:main.c        **** }
  80              		.loc 1 79 0
  81 003a 02B0     		add	sp, sp, #8
  82              		@ sp needed
  83 003c 10BD     		pop	{r4, pc}
  84              	.L5:
  85 003e C046     		.align	2
  86              	.L4:
  87 0040 55430000 		.word	17237
  88 0044 7C002E40 		.word	1076756604
  89 0048 D4112E40 		.word	1076761044
  90 004c 00000000 		.word	apiResult
  91              		.cfi_endproc
  92              	.LFE35:
ARM GAS  C:\Users\ADMINI~1\AppData\Local\Temp\cclzuU1t.s 			page 4


  93              		.size	AppCallBack, .-AppCallBack
  94              		.section	.text.RunBle,"ax",%progbits
  95              		.align	2
  96              		.global	RunBle
  97              		.code	16
  98              		.thumb_func
  99              		.type	RunBle, %function
 100              	RunBle:
 101              	.LFB39:
  80:main.c        **** 
  81:main.c        **** __inline void ManageSystemPower()
  82:main.c        **** {
  83:main.c        ****     /* Variable declarations */
  84:main.c        ****     CYBLE_BLESS_STATE_T blePower;
  85:main.c        ****     uint8 interruptStatus ;
  86:main.c        ****     
  87:main.c        ****    /* Disable global interrupts to avoid any other tasks from interrupting this section of code*/
  88:main.c        ****     interruptStatus  = CyEnterCriticalSection();
  89:main.c        ****     
  90:main.c        ****     /* Get current state of BLE sub system to check if it has successfully entered deep sleep state
  91:main.c        ****     blePower = CyBle_GetBleSsState();
  92:main.c        ****     
  93:main.c        ****     /* System can enter DeepSleep only when BLESS and rest of the application are in DeepSleep or e
  94:main.c        ****      * power modes */
  95:main.c        ****     if((blePower == CYBLE_BLESS_STATE_DEEPSLEEP || blePower == CYBLE_BLESS_STATE_ECO_ON) && 
  96:main.c        ****         applicationPower == DEEPSLEEP)
  97:main.c        ****     {
  98:main.c        **** 	   // LED_Status_Write(OFF);
  99:main.c        **** 		//CyDelay(200);
 100:main.c        ****         applicationPower = WAKEUP_DEEPSLEEP;
 101:main.c        ****         CySysPmDeepSleep();
 102:main.c        ****     }
 103:main.c        ****     else if((blePower != CYBLE_BLESS_STATE_EVENT_CLOSE))
 104:main.c        ****     {
 105:main.c        ****         if(applicationPower == DEEPSLEEP)
 106:main.c        ****         {
 107:main.c        ****             applicationPower = WAKEUP_DEEPSLEEP;
 108:main.c        ****             
 109:main.c        ****             /* change HF clock source from IMO to ECO, as IMO is not required and can be stopped to
 110:main.c        ****             CySysClkWriteHfclkDirect(CY_SYS_CLK_HFCLK_ECO); 
 111:main.c        ****             /* stop IMO for reducing power consumption */
 112:main.c        ****             CySysClkImoStop();            
 113:main.c        ****             /* put the CPU to sleep */
 114:main.c        ****             CySysPmSleep();           
 115:main.c        ****             /* starts execution after waking up, start IMO */
 116:main.c        ****             CySysClkImoStart();
 117:main.c        ****             /* change HF clock source back to IMO */
 118:main.c        ****             CySysClkWriteHfclkDirect(CY_SYS_CLK_HFCLK_IMO);
 119:main.c        ****         }
 120:main.c        ****         else if(applicationPower == SLEEP )
 121:main.c        ****         {
 122:main.c        ****             /* If the application requires IMO for its operation, we should not switch the HFCLK so
 123:main.c        ****             applicationPower = WAKEUP_SLEEP;        
 124:main.c        ****             CySysPmSleep();
 125:main.c        ****  
 126:main.c        ****         }
 127:main.c        ****     }
ARM GAS  C:\Users\ADMINI~1\AppData\Local\Temp\cclzuU1t.s 			page 5


 128:main.c        ****     
 129:main.c        ****     /* Enable interrupts */
 130:main.c        ****     CyExitCriticalSection(interruptStatus );
 131:main.c        **** 
 132:main.c        **** }
 133:main.c        **** 
 134:main.c        **** __inline void ManageApplicationPower()
 135:main.c        **** {
 136:main.c        ****     switch(applicationPower)
 137:main.c        ****     {
 138:main.c        ****         case ACTIVE: // dont need to do anything
 139:main.c        **** 	     //LED_Status_Write(ON);
 140:main.c        **** 		 //CyDelay(200);
 141:main.c        ****         break;
 142:main.c        ****         
 143:main.c        ****         case WAKEUP_SLEEP: // do whatever wakeup needs to be done - probably never do anything     
 144:main.c        ****             applicationPower = ACTIVE;
 145:main.c        ****         break;
 146:main.c        ****         
 147:main.c        ****         case WAKEUP_DEEPSLEEP: // do whatever wakeup needs to be done.       
 148:main.c        ****             applicationPower = ACTIVE;
 149:main.c        ****         break;
 150:main.c        ****         
 151:main.c        ****         case SLEEP: 
 152:main.c        ****         /** Add code to place the application components to sleep here  */
 153:main.c        **** 
 154:main.c        ****         break;
 155:main.c        ****         
 156:main.c        ****         case DEEPSLEEP:
 157:main.c        ****         /** Add code to place the application components to deep sleep here  */
 158:main.c        ****         
 159:main.c        ****         break;
 160:main.c        ****     }
 161:main.c        **** }
 162:main.c        **** 
 163:main.c        **** __inline void RunApplication()
 164:main.c        **** {
 165:main.c        ****     /**  Place your application code here **/
 166:main.c        ****     
 167:main.c        ****     /* Once application is done with all processing, enter low-power mode */
 168:main.c        ****     if(0) /* if you are ready to sleep then set it up to go to sleep */
 169:main.c        ****     {
 170:main.c        ****         applicationPower = SLEEP;
 171:main.c        ****     }
 172:main.c        ****     
 173:main.c        ****     if(1) /* if you are done with everything, then deepsleep */
 174:main.c        ****     {
 175:main.c        ****         applicationPower = DEEPSLEEP;
 176:main.c        ****     }
 177:main.c        **** }
 178:main.c        **** void RunBle()
 179:main.c        **** {
 102              		.loc 1 179 0
 103              		.cfi_startproc
 104              		@ args = 0, pretend = 0, frame = 0
 105              		@ frame_needed = 0, uses_anonymous_args = 0
 106 0000 10B5     		push	{r4, lr}
ARM GAS  C:\Users\ADMINI~1\AppData\Local\Temp\cclzuU1t.s 			page 6


 107              		.cfi_def_cfa_offset 8
 108              		.cfi_offset 4, -8
 109              		.cfi_offset 14, -4
 180:main.c        ****     CyBle_ProcessEvents();
 110              		.loc 1 180 0
 111 0002 FFF7FEFF 		bl	CyBle_ProcessEvents
 112              	.LVL7:
 181:main.c        **** }
 113              		.loc 1 181 0
 114              		@ sp needed
 115 0006 10BD     		pop	{r4, pc}
 116              		.cfi_endproc
 117              	.LFE39:
 118              		.size	RunBle, .-RunBle
 119              		.section	.text.main,"ax",%progbits
 120              		.align	2
 121              		.global	main
 122              		.code	16
 123              		.thumb_func
 124              		.type	main, %function
 125              	main:
 126              	.LFB40:
 182:main.c        **** 
 183:main.c        **** 
 184:main.c        **** int main(void)
 185:main.c        **** {
 127              		.loc 1 185 0
 128              		.cfi_startproc
 129              		@ Volatile: function does not return.
 130              		@ args = 0, pretend = 0, frame = 0
 131              		@ frame_needed = 0, uses_anonymous_args = 0
 132 0000 10B5     		push	{r4, lr}
 133              		.cfi_def_cfa_offset 8
 134              		.cfi_offset 4, -8
 135              		.cfi_offset 14, -4
 186:main.c        **** 	LED_Status_Write(ON);
 136              		.loc 1 186 0
 137 0002 0020     		movs	r0, #0
 138 0004 FFF7FEFF 		bl	LED_Status_Write
 139              	.LVL8:
 187:main.c        **** 	CyDelay(200);
 140              		.loc 1 187 0
 141 0008 C820     		movs	r0, #200
 142 000a FFF7FEFF 		bl	CyDelay
 143              	.LVL9:
 188:main.c        ****     LED_Status_Write(OFF);
 144              		.loc 1 188 0
 145 000e 0120     		movs	r0, #1
 146 0010 FFF7FEFF 		bl	LED_Status_Write
 147              	.LVL10:
 189:main.c        **** 	CyDelay(200);
 148              		.loc 1 189 0
 149 0014 C820     		movs	r0, #200
 150 0016 FFF7FEFF 		bl	CyDelay
 151              	.LVL11:
 190:main.c        **** 	
 191:main.c        ****     CyGlobalIntEnable; /* Enable global interrupts. */
ARM GAS  C:\Users\ADMINI~1\AppData\Local\Temp\cclzuU1t.s 			page 7


 152              		.loc 1 191 0
 153              		.syntax divided
 154              	@ 191 "main.c" 1
 155 001a 62B6     		CPSIE   i
 156              	@ 0 "" 2
 192:main.c        ****     /* Internal low power oscillator is stopped as it is not used in this project */
 193:main.c        ****     CySysClkIloStop();
 157              		.loc 1 193 0
 158              		.thumb
 159              		.syntax unified
 160 001c FFF7FEFF 		bl	CySysClkIloStop
 161              	.LVL12:
 194:main.c        ****     
 195:main.c        ****     /* Set the divider for ECO, ECO will be used as source when IMO is switched off to save power *
 196:main.c        ****     CySysClkWriteEcoDiv(CY_SYS_CLK_ECO_DIV8);
 162              		.loc 1 196 0
 163 0020 0320     		movs	r0, #3
 164 0022 FFF7FEFF 		bl	CySysClkWriteEcoDiv
 165              	.LVL13:
 197:main.c        ****     
 198:main.c        **** 	CySysClkWriteSysclkDiv(CY_SYS_CLK_SYSCLK_DIV8);//6M
 166              		.loc 1 198 0
 167 0026 0320     		movs	r0, #3
 168 0028 FFF7FEFF 		bl	CySysClkWriteSysclkDiv
 169              	.LVL14:
 199:main.c        **** 	
 200:main.c        ****     /* Start CYBLE component and register the generic event handler */
 201:main.c        ****     apiResult = CyBle_Start(AppCallBack);
 170              		.loc 1 201 0
 171 002c 2E48     		ldr	r0, .L19
 172 002e FFF7FEFF 		bl	CyBle_Start
 173              	.LVL15:
 174 0032 2E4B     		ldr	r3, .L19+4
 175 0034 1880     		strh	r0, [r3]
 202:main.c        ****        
 203:main.c        ****     /* Wait for BLE Component to Initialize */
 204:main.c        ****     while (CyBle_GetState() == CYBLE_STATE_INITIALIZING)
 176              		.loc 1 204 0
 177 0036 01E0     		b	.L8
 178              	.L9:
 205:main.c        ****     {
 206:main.c        ****         CyBle_ProcessEvents(); 
 179              		.loc 1 206 0
 180 0038 FFF7FEFF 		bl	CyBle_ProcessEvents
 181              	.LVL16:
 182              	.L8:
 204:main.c        ****     {
 183              		.loc 1 204 0
 184 003c 2C4B     		ldr	r3, .L19+8
 185 003e 1B78     		ldrb	r3, [r3]
 186 0040 012B     		cmp	r3, #1
 187 0042 F9D0     		beq	.L9
 207:main.c        ****     }
 208:main.c        ****    
 209:main.c        ****     applicationPower = ACTIVE;
 188              		.loc 1 209 0
 189 0044 0222     		movs	r2, #2
ARM GAS  C:\Users\ADMINI~1\AppData\Local\Temp\cclzuU1t.s 			page 8


 190 0046 2B4B     		ldr	r3, .L19+12
 191 0048 1A70     		strb	r2, [r3]
 192              	.L18:
 210:main.c        ****     
 211:main.c        ****     /*If DEEPSLEEP_ONLY is enabled, then the device stays in deep sleep all the time  
 212:main.c        ****     * This is a good way to check if there are any leakage currents in the device. */
 213:main.c        ****     #if DEEPSLEEP_ONLY
 214:main.c        ****     CySysClkEcoStop();    
 215:main.c        ****     CySysPmDeepSleep();
 216:main.c        ****     while(1);
 217:main.c        ****     #endif    
 218:main.c        **** 
 219:main.c        ****     
 220:main.c        **** 
 221:main.c        ****     for(;;)
 222:main.c        ****     {
 223:main.c        **** 	    RunBle();
 193              		.loc 1 223 0
 194 004a FFF7FEFF 		bl	RunBle
 195              	.LVL17:
 224:main.c        ****         ManageBlePower(); 
 196              		.loc 1 224 0
 197 004e 0320     		movs	r0, #3
 198 0050 FFF7FEFF 		bl	CyBle_EnterLPM
 199              	.LVL18:
 225:main.c        ****         if(applicationPower == ACTIVE)
 200              		.loc 1 225 0
 201 0054 274B     		ldr	r3, .L19+12
 202 0056 1B78     		ldrb	r3, [r3]
 203 0058 022B     		cmp	r3, #2
 204 005a 02D1     		bne	.L10
 205              	.LBB8:
 206              	.LBB9:
 175:main.c        ****     }
 207              		.loc 1 175 0
 208 005c 0422     		movs	r2, #4
 209 005e 254B     		ldr	r3, .L19+12
 210 0060 1A70     		strb	r2, [r3]
 211              	.L10:
 212              	.LBE9:
 213              	.LBE8:
 214              	.LBB10:
 215              	.LBB11:
 136:main.c        ****     {
 216              		.loc 1 136 0
 217 0062 244B     		ldr	r3, .L19+12
 218 0064 1B78     		ldrb	r3, [r3]
 219 0066 002B     		cmp	r3, #0
 220 0068 02D0     		beq	.L12
 221 006a 012B     		cmp	r3, #1
 222 006c 04D0     		beq	.L13
 223 006e 06E0     		b	.L11
 224              	.L12:
 144:main.c        ****         break;
 225              		.loc 1 144 0
 226 0070 0222     		movs	r2, #2
 227 0072 204B     		ldr	r3, .L19+12
ARM GAS  C:\Users\ADMINI~1\AppData\Local\Temp\cclzuU1t.s 			page 9


 228 0074 1A70     		strb	r2, [r3]
 229 0076 02E0     		b	.L11
 230              	.L13:
 148:main.c        ****         break;
 231              		.loc 1 148 0
 232 0078 0222     		movs	r2, #2
 233 007a 1E4B     		ldr	r3, .L19+12
 234 007c 1A70     		strb	r2, [r3]
 235              	.L11:
 236              	.LBE11:
 237              	.LBE10:
 238              	.LBB12:
 239              	.LBB13:
  88:main.c        ****     
 240              		.loc 1 88 0
 241 007e FFF7FEFF 		bl	CyEnterCriticalSection
 242              	.LVL19:
 243 0082 0400     		movs	r4, r0
 244              	.LVL20:
  91:main.c        ****     
 245              		.loc 1 91 0
 246 0084 FFF7FEFF 		bl	CyBle_GetBleSsState
 247              	.LVL21:
  95:main.c        ****         applicationPower == DEEPSLEEP)
 248              		.loc 1 95 0
 249 0088 0628     		cmp	r0, #6
 250 008a 01D0     		beq	.L14
 251 008c 0428     		cmp	r0, #4
 252 008e 09D1     		bne	.L15
 253              	.L14:
  96:main.c        ****     {
 254              		.loc 1 96 0
 255 0090 184B     		ldr	r3, .L19+12
 256 0092 1B78     		ldrb	r3, [r3]
  95:main.c        ****         applicationPower == DEEPSLEEP)
 257              		.loc 1 95 0
 258 0094 042B     		cmp	r3, #4
 259 0096 05D1     		bne	.L15
 100:main.c        ****         CySysPmDeepSleep();
 260              		.loc 1 100 0
 261 0098 0122     		movs	r2, #1
 262 009a 164B     		ldr	r3, .L19+12
 263 009c 1A70     		strb	r2, [r3]
 101:main.c        ****     }
 264              		.loc 1 101 0
 265 009e FFF7FEFF 		bl	CySysPmDeepSleep
 266              	.LVL22:
 267 00a2 1CE0     		b	.L16
 268              	.LVL23:
 269              	.L15:
 103:main.c        ****     {
 270              		.loc 1 103 0
 271 00a4 0228     		cmp	r0, #2
 272 00a6 1AD0     		beq	.L16
 105:main.c        ****         {
 273              		.loc 1 105 0
 274 00a8 124B     		ldr	r3, .L19+12
ARM GAS  C:\Users\ADMINI~1\AppData\Local\Temp\cclzuU1t.s 			page 10


 275 00aa 1B78     		ldrb	r3, [r3]
 276 00ac 042B     		cmp	r3, #4
 277 00ae 0FD1     		bne	.L17
 107:main.c        ****             
 278              		.loc 1 107 0
 279 00b0 0122     		movs	r2, #1
 280 00b2 104B     		ldr	r3, .L19+12
 281 00b4 1A70     		strb	r2, [r3]
 110:main.c        ****             /* stop IMO for reducing power consumption */
 282              		.loc 1 110 0
 283 00b6 0220     		movs	r0, #2
 284              	.LVL24:
 285 00b8 FFF7FEFF 		bl	CySysClkWriteHfclkDirect
 286              	.LVL25:
 112:main.c        ****             /* put the CPU to sleep */
 287              		.loc 1 112 0
 288 00bc FFF7FEFF 		bl	CySysClkImoStop
 289              	.LVL26:
 114:main.c        ****             /* starts execution after waking up, start IMO */
 290              		.loc 1 114 0
 291 00c0 FFF7FEFF 		bl	CySysPmSleep
 292              	.LVL27:
 116:main.c        ****             /* change HF clock source back to IMO */
 293              		.loc 1 116 0
 294 00c4 FFF7FEFF 		bl	CySysClkImoStart
 295              	.LVL28:
 118:main.c        ****         }
 296              		.loc 1 118 0
 297 00c8 0020     		movs	r0, #0
 298 00ca FFF7FEFF 		bl	CySysClkWriteHfclkDirect
 299              	.LVL29:
 300 00ce 06E0     		b	.L16
 301              	.LVL30:
 302              	.L17:
 120:main.c        ****         {
 303              		.loc 1 120 0
 304 00d0 032B     		cmp	r3, #3
 305 00d2 04D1     		bne	.L16
 123:main.c        ****             CySysPmSleep();
 306              		.loc 1 123 0
 307 00d4 0022     		movs	r2, #0
 308 00d6 074B     		ldr	r3, .L19+12
 309 00d8 1A70     		strb	r2, [r3]
 124:main.c        ****  
 310              		.loc 1 124 0
 311 00da FFF7FEFF 		bl	CySysPmSleep
 312              	.LVL31:
 313              	.L16:
 130:main.c        **** 
 314              		.loc 1 130 0
 315 00de 2000     		movs	r0, r4
 316 00e0 FFF7FEFF 		bl	CyExitCriticalSection
 317              	.LVL32:
 318 00e4 B1E7     		b	.L18
 319              	.L20:
 320 00e6 C046     		.align	2
 321              	.L19:
ARM GAS  C:\Users\ADMINI~1\AppData\Local\Temp\cclzuU1t.s 			page 11


 322 00e8 00000000 		.word	AppCallBack
 323 00ec 00000000 		.word	apiResult
 324 00f0 00000000 		.word	cyBle_state
 325 00f4 00000000 		.word	applicationPower
 326              	.LBE13:
 327              	.LBE12:
 328              		.cfi_endproc
 329              	.LFE40:
 330              		.size	main, .-main
 331              		.comm	applicationPower,1,1
 332              		.comm	apiResult,2,2
 333              		.text
 334              	.Letext0:
 335              		.file 2 "Generated_Source\\PSoC4/cytypes.h"
 336              		.file 3 "Generated_Source\\PSoC4/BLE_Stack.h"
 337              		.file 4 "Generated_Source\\PSoC4/BLE_ans.h"
 338              		.file 5 "Generated_Source\\PSoC4/BLE_eventHandler.h"
 339              		.file 6 "Generated_Source\\PSoC4/BLE.h"
 340              		.file 7 "Generated_Source\\PSoC4/CyLib.h"
 341              		.file 8 "Generated_Source\\PSoC4/cyPm.h"
 342              		.file 9 "Generated_Source\\PSoC4/LED_Status.h"
 343              		.file 10 "Generated_Source\\PSoC4/CyLFClk.h"