ARM GAS  C:\Users\ADMINI~1\AppData\Local\Temp\ccMaTind.s 			page 1


   1              		.syntax unified
   2              		.cpu cortex-m0
   3              		.fpu softvfp
   4              		.eabi_attribute 20, 1
   5              		.eabi_attribute 21, 1
   6              		.eabi_attribute 23, 3
   7              		.eabi_attribute 24, 1
   8              		.eabi_attribute 25, 1
   9              		.eabi_attribute 26, 1
  10              		.eabi_attribute 30, 1
  11              		.eabi_attribute 34, 0
  12              		.eabi_attribute 18, 4
  13              		.thumb
  14              		.syntax unified
  15              		.file	"BLE_1_eventHandler.c"
  16              		.text
  17              	.Ltext0:
  18              		.cfi_sections	.debug_frame
  19              		.section	.text.CyBle_GattDisconnectEventHandler,"ax",%progbits
  20              		.align	2
  21              		.code	16
  22              		.thumb_func
  23              		.type	CyBle_GattDisconnectEventHandler, %function
  24              	CyBle_GattDisconnectEventHandler:
  25              	.LFB4:
  26              		.file 1 "Generated_Source\\PSoC4\\BLE_1_eventHandler.c"
   1:Generated_Source\PSoC4/BLE_1_eventHandler.c **** /***************************************************************************//**
   2:Generated_Source\PSoC4/BLE_1_eventHandler.c **** * \file CYBLE_eventHandler.c
   3:Generated_Source\PSoC4/BLE_1_eventHandler.c **** * \version 3.40
   4:Generated_Source\PSoC4/BLE_1_eventHandler.c **** * 
   5:Generated_Source\PSoC4/BLE_1_eventHandler.c **** * \brief
   6:Generated_Source\PSoC4/BLE_1_eventHandler.c **** *  This file contains the source code for the Event Handler State Machine
   7:Generated_Source\PSoC4/BLE_1_eventHandler.c **** *  of the BLE Component.
   8:Generated_Source\PSoC4/BLE_1_eventHandler.c **** * 
   9:Generated_Source\PSoC4/BLE_1_eventHandler.c **** ********************************************************************************
  10:Generated_Source\PSoC4/BLE_1_eventHandler.c **** * \copyright
  11:Generated_Source\PSoC4/BLE_1_eventHandler.c **** * Copyright 2014-2016, Cypress Semiconductor Corporation.  All rights reserved.
  12:Generated_Source\PSoC4/BLE_1_eventHandler.c **** * You may use this file only in accordance with the license, terms, conditions,
  13:Generated_Source\PSoC4/BLE_1_eventHandler.c **** * disclaimers, and limitations in the end user license agreement accompanying
  14:Generated_Source\PSoC4/BLE_1_eventHandler.c **** * the software package with which this file was provided.
  15:Generated_Source\PSoC4/BLE_1_eventHandler.c **** *******************************************************************************/
  16:Generated_Source\PSoC4/BLE_1_eventHandler.c **** 
  17:Generated_Source\PSoC4/BLE_1_eventHandler.c **** #include "BLE_1_eventHandler.h"
  18:Generated_Source\PSoC4/BLE_1_eventHandler.c **** 
  19:Generated_Source\PSoC4/BLE_1_eventHandler.c **** 
  20:Generated_Source\PSoC4/BLE_1_eventHandler.c **** /***************************************
  21:Generated_Source\PSoC4/BLE_1_eventHandler.c **** * Private Function Prototypes
  22:Generated_Source\PSoC4/BLE_1_eventHandler.c **** ***************************************/
  23:Generated_Source\PSoC4/BLE_1_eventHandler.c **** 
  24:Generated_Source\PSoC4/BLE_1_eventHandler.c **** static void CyBle_GattDisconnectEventHandler(void);
  25:Generated_Source\PSoC4/BLE_1_eventHandler.c **** static void CyBle_TimeOutEventHandler(const CYBLE_TO_REASON_CODE_T *eventParam);
  26:Generated_Source\PSoC4/BLE_1_eventHandler.c **** static void CyBle_GattConnectReqHandler(void);
  27:Generated_Source\PSoC4/BLE_1_eventHandler.c **** static void CyBle_L2Cap_ConnParamUpdateRspEventHandler(uint16 response);
  28:Generated_Source\PSoC4/BLE_1_eventHandler.c **** static void CyBle_GapConnUpdateCompleteEventHandler(const CYBLE_GAP_CONN_PARAM_UPDATED_IN_CONTROLLE
  29:Generated_Source\PSoC4/BLE_1_eventHandler.c **** 
  30:Generated_Source\PSoC4/BLE_1_eventHandler.c **** 
  31:Generated_Source\PSoC4/BLE_1_eventHandler.c **** #if (CYBLE_GATT_ROLE_SERVER)
ARM GAS  C:\Users\ADMINI~1\AppData\Local\Temp\ccMaTind.s 			page 2


  32:Generated_Source\PSoC4/BLE_1_eventHandler.c **** 
  33:Generated_Source\PSoC4/BLE_1_eventHandler.c **** static void CyBle_WriteReqHandler(CYBLE_GATTS_WRITE_REQ_PARAM_T *eventParam);
  34:Generated_Source\PSoC4/BLE_1_eventHandler.c **** static void CyBle_ValueConfirmation(const CYBLE_CONN_HANDLE_T *eventParam);
  35:Generated_Source\PSoC4/BLE_1_eventHandler.c **** 
  36:Generated_Source\PSoC4/BLE_1_eventHandler.c **** #endif /* CYBLE_GATT_ROLE_SERVER */
  37:Generated_Source\PSoC4/BLE_1_eventHandler.c **** 
  38:Generated_Source\PSoC4/BLE_1_eventHandler.c **** #if (CYBLE_GATT_ROLE_CLIENT)
  39:Generated_Source\PSoC4/BLE_1_eventHandler.c **** 
  40:Generated_Source\PSoC4/BLE_1_eventHandler.c **** static void CyBle_GapcDiscoverCharacteristicsEventHandler(CYBLE_DISC_CHAR_INFO_T *discCharInfo);
  41:Generated_Source\PSoC4/BLE_1_eventHandler.c **** static CYBLE_GATT_ATTR_HANDLE_RANGE_T CyBle_GetCharRange(void);
  42:Generated_Source\PSoC4/BLE_1_eventHandler.c **** static void CyBle_GattcWriteResponseEventHandler(const CYBLE_CONN_HANDLE_T *eventParam);
  43:Generated_Source\PSoC4/BLE_1_eventHandler.c **** static void CyBle_NotificationEventHandler(CYBLE_GATTC_HANDLE_VALUE_NTF_PARAM_T *eventParam);
  44:Generated_Source\PSoC4/BLE_1_eventHandler.c **** static void CyBle_IndicationEventHandler(CYBLE_GATTC_HANDLE_VALUE_IND_PARAM_T *eventParam);
  45:Generated_Source\PSoC4/BLE_1_eventHandler.c **** static void CyBle_ReadResponseEventHandler(CYBLE_GATTC_READ_RSP_PARAM_T *eventParam);
  46:Generated_Source\PSoC4/BLE_1_eventHandler.c **** static void CyBle_ReadMultipleResponseEventHandler(CYBLE_GATTC_READ_RSP_PARAM_T *eventParam);
  47:Generated_Source\PSoC4/BLE_1_eventHandler.c **** 
  48:Generated_Source\PSoC4/BLE_1_eventHandler.c **** #endif /* CYBLE_GATT_ROLE_CLIENT */
  49:Generated_Source\PSoC4/BLE_1_eventHandler.c **** 
  50:Generated_Source\PSoC4/BLE_1_eventHandler.c **** 
  51:Generated_Source\PSoC4/BLE_1_eventHandler.c **** /***************************************
  52:Generated_Source\PSoC4/BLE_1_eventHandler.c **** * Global Variables
  53:Generated_Source\PSoC4/BLE_1_eventHandler.c **** ***************************************/
  54:Generated_Source\PSoC4/BLE_1_eventHandler.c **** 
  55:Generated_Source\PSoC4/BLE_1_eventHandler.c **** /* This global variable is initialized after connection with peer device, 
  56:Generated_Source\PSoC4/BLE_1_eventHandler.c ****    after CYBLE_EVT_GATT_CONNECT_IND event, and could be used by application code
  57:Generated_Source\PSoC4/BLE_1_eventHandler.c ****    to send data to peer device. 
  58:Generated_Source\PSoC4/BLE_1_eventHandler.c **** */
  59:Generated_Source\PSoC4/BLE_1_eventHandler.c **** CYBLE_CONN_HANDLE_T cyBle_connHandle;
  60:Generated_Source\PSoC4/BLE_1_eventHandler.c **** 
  61:Generated_Source\PSoC4/BLE_1_eventHandler.c **** volatile uint8 cyBle_eventHandlerFlag;
  62:Generated_Source\PSoC4/BLE_1_eventHandler.c **** volatile uint8 cyBle_busyStatus;
  63:Generated_Source\PSoC4/BLE_1_eventHandler.c **** 
  64:Generated_Source\PSoC4/BLE_1_eventHandler.c **** const CYBLE_GAPS_T cyBle_gaps =
  65:Generated_Source\PSoC4/BLE_1_eventHandler.c **** {
  66:Generated_Source\PSoC4/BLE_1_eventHandler.c ****     0x0001u,    /* Handle of the GAP service */
  67:Generated_Source\PSoC4/BLE_1_eventHandler.c ****     0x0003u,    /* Handle of the Device Name characteristic */
  68:Generated_Source\PSoC4/BLE_1_eventHandler.c ****     0x0005u,    /* Handle of the Appearance characteristic */
  69:Generated_Source\PSoC4/BLE_1_eventHandler.c ****     0x0007u,    /* Handle of the Peripheral Preferred Connection Parameters characteristic */
  70:Generated_Source\PSoC4/BLE_1_eventHandler.c ****     0x0009u,    /* Handle of the Central Address Resolution characteristic */
  71:Generated_Source\PSoC4/BLE_1_eventHandler.c ****     0x000Bu,    /* Handle of the Resolvable Private Address Only characteristic */
  72:Generated_Source\PSoC4/BLE_1_eventHandler.c **** };
  73:Generated_Source\PSoC4/BLE_1_eventHandler.c **** 
  74:Generated_Source\PSoC4/BLE_1_eventHandler.c **** 
  75:Generated_Source\PSoC4/BLE_1_eventHandler.c **** #if(CYBLE_GAP_ROLE_PERIPHERAL || CYBLE_GAP_ROLE_BROADCASTER) 
  76:Generated_Source\PSoC4/BLE_1_eventHandler.c ****     uint8 cyBle_advertisingIntervalType;
  77:Generated_Source\PSoC4/BLE_1_eventHandler.c **** #endif /* CYBLE_GAP_ROLE_PERIPHERAL || CYBLE_GAP_ROLE_BROADCASTER) */
  78:Generated_Source\PSoC4/BLE_1_eventHandler.c **** 
  79:Generated_Source\PSoC4/BLE_1_eventHandler.c **** #if(CYBLE_GAP_ROLE_CENTRAL || CYBLE_GAP_ROLE_OBSERVER) 
  80:Generated_Source\PSoC4/BLE_1_eventHandler.c ****     uint8 cyBle_scanningIntervalType;
  81:Generated_Source\PSoC4/BLE_1_eventHandler.c **** #endif /* CYBLE_GAP_ROLE_CENTRAL || CYBLE_GAP_ROLE_OBSERVER */
  82:Generated_Source\PSoC4/BLE_1_eventHandler.c **** 
  83:Generated_Source\PSoC4/BLE_1_eventHandler.c **** #if(CYBLE_GATT_ROLE_SERVER)
  84:Generated_Source\PSoC4/BLE_1_eventHandler.c **** #if defined CYBLE_CTS_SERVER || defined CYBLE_ESS_SERVER
  85:Generated_Source\PSoC4/BLE_1_eventHandler.c **** CYBLE_GATT_ERR_CODE_T cyBle_gattError;
  86:Generated_Source\PSoC4/BLE_1_eventHandler.c **** #endif /* defined CYBLE_CTS_SERVER || defined CYBLE_ESS_SERVER */
  87:Generated_Source\PSoC4/BLE_1_eventHandler.c **** #endif /* CYBLE_GATT_ROLE_SERVER */
  88:Generated_Source\PSoC4/BLE_1_eventHandler.c **** 
ARM GAS  C:\Users\ADMINI~1\AppData\Local\Temp\ccMaTind.s 			page 3


  89:Generated_Source\PSoC4/BLE_1_eventHandler.c **** #if(CYBLE_GATT_ROLE_CLIENT)
  90:Generated_Source\PSoC4/BLE_1_eventHandler.c **** uint8 cyBle_disCount; /* Counter for discovery procedures */
  91:Generated_Source\PSoC4/BLE_1_eventHandler.c **** 
  92:Generated_Source\PSoC4/BLE_1_eventHandler.c **** #ifdef CYBLE_CUSTOM_CLIENT
  93:Generated_Source\PSoC4/BLE_1_eventHandler.c **** /* Discovery included service information, used for 128-bit UUID read response handle 
  94:Generated_Source\PSoC4/BLE_1_eventHandler.c ****    and for continue discovery. 
  95:Generated_Source\PSoC4/BLE_1_eventHandler.c **** */
  96:Generated_Source\PSoC4/BLE_1_eventHandler.c **** static CYBLE_DISC_INCL_INFO_T cyBle_discInclInfo;
  97:Generated_Source\PSoC4/BLE_1_eventHandler.c **** #endif /* CYBLE_CUSTOM_CLIENT */
  98:Generated_Source\PSoC4/BLE_1_eventHandler.c **** 
  99:Generated_Source\PSoC4/BLE_1_eventHandler.c **** #ifdef CYBLE_HIDS_CLIENT
 100:Generated_Source\PSoC4/BLE_1_eventHandler.c ****     static uint8 disServiceIndex;      /* To discovery descriptors for multiple HID service instanc
 101:Generated_Source\PSoC4/BLE_1_eventHandler.c **** #endif /* CYBLE_HIDS_CLIENT */
 102:Generated_Source\PSoC4/BLE_1_eventHandler.c **** 
 103:Generated_Source\PSoC4/BLE_1_eventHandler.c **** CYBLE_DISC_SRVC_INFO_T cyBle_serverInfo[CYBLE_SRVI_COUNT] = /*3*/
 104:Generated_Source\PSoC4/BLE_1_eventHandler.c **** {
 105:Generated_Source\PSoC4/BLE_1_eventHandler.c ****     {{CYBLE_GATT_INVALID_ATTR_HANDLE_VALUE, CYBLE_GATT_INVALID_ATTR_HANDLE_VALUE}, CYBLE_UUID_GAP_S
 106:Generated_Source\PSoC4/BLE_1_eventHandler.c ****     {{CYBLE_GATT_INVALID_ATTR_HANDLE_VALUE, CYBLE_GATT_INVALID_ATTR_HANDLE_VALUE}, CYBLE_UUID_GATT_
 107:Generated_Source\PSoC4/BLE_1_eventHandler.c **** #ifdef CYBLE_AIOS_CLIENT
 108:Generated_Source\PSoC4/BLE_1_eventHandler.c ****     {{CYBLE_GATT_INVALID_ATTR_HANDLE_VALUE, CYBLE_GATT_INVALID_ATTR_HANDLE_VALUE}, CYBLE_UUID_AUTOM
 109:Generated_Source\PSoC4/BLE_1_eventHandler.c **** #endif /* CYBLE_BCS_CLIENT */
 110:Generated_Source\PSoC4/BLE_1_eventHandler.c **** #ifdef CYBLE_ANCS_CLIENT
 111:Generated_Source\PSoC4/BLE_1_eventHandler.c ****     {{CYBLE_GATT_INVALID_ATTR_HANDLE_VALUE, CYBLE_GATT_INVALID_ATTR_HANDLE_VALUE}, 0x0000u},
 112:Generated_Source\PSoC4/BLE_1_eventHandler.c **** #endif /* CYBLE_ANCS_CLIENT */
 113:Generated_Source\PSoC4/BLE_1_eventHandler.c **** #ifdef CYBLE_ANS_CLIENT
 114:Generated_Source\PSoC4/BLE_1_eventHandler.c ****     {{CYBLE_GATT_INVALID_ATTR_HANDLE_VALUE, CYBLE_GATT_INVALID_ATTR_HANDLE_VALUE}, 
 115:Generated_Source\PSoC4/BLE_1_eventHandler.c ****         CYBLE_UUID_ALERT_NOTIFICATION_SERVICE},
 116:Generated_Source\PSoC4/BLE_1_eventHandler.c **** #endif /* CYBLE_ANS_CLIENT */
 117:Generated_Source\PSoC4/BLE_1_eventHandler.c **** #ifdef CYBLE_BAS_CLIENT
 118:Generated_Source\PSoC4/BLE_1_eventHandler.c ****     {{CYBLE_GATT_INVALID_ATTR_HANDLE_VALUE, CYBLE_GATT_INVALID_ATTR_HANDLE_VALUE}, CYBLE_UUID_BAS_S
 119:Generated_Source\PSoC4/BLE_1_eventHandler.c ****     #if(CYBLE_BASC_SERVICE_COUNT > 1u) /* Generate it by GUI */
 120:Generated_Source\PSoC4/BLE_1_eventHandler.c ****         
 121:Generated_Source\PSoC4/BLE_1_eventHandler.c ****     #endif /* CYBLE_BASC_SERVICE_COUNT > 1u */
 122:Generated_Source\PSoC4/BLE_1_eventHandler.c **** #endif /* CYBLE_BAS_CLIENT */
 123:Generated_Source\PSoC4/BLE_1_eventHandler.c **** #ifdef CYBLE_BCS_CLIENT
 124:Generated_Source\PSoC4/BLE_1_eventHandler.c ****     {{CYBLE_GATT_INVALID_ATTR_HANDLE_VALUE, CYBLE_GATT_INVALID_ATTR_HANDLE_VALUE}, CYBLE_UUID_BODY_
 125:Generated_Source\PSoC4/BLE_1_eventHandler.c **** #endif /* CYBLE_BCS_CLIENT */
 126:Generated_Source\PSoC4/BLE_1_eventHandler.c **** #ifdef CYBLE_BLS_CLIENT
 127:Generated_Source\PSoC4/BLE_1_eventHandler.c ****     {{CYBLE_GATT_INVALID_ATTR_HANDLE_VALUE, CYBLE_GATT_INVALID_ATTR_HANDLE_VALUE}, CYBLE_UUID_BLOOD
 128:Generated_Source\PSoC4/BLE_1_eventHandler.c **** #endif /* CYBLE_BLS_CLIENT */
 129:Generated_Source\PSoC4/BLE_1_eventHandler.c **** #ifdef CYBLE_BMS_CLIENT
 130:Generated_Source\PSoC4/BLE_1_eventHandler.c ****     {{CYBLE_GATT_INVALID_ATTR_HANDLE_VALUE, CYBLE_GATT_INVALID_ATTR_HANDLE_VALUE}, CYBLE_UUID_BOND_
 131:Generated_Source\PSoC4/BLE_1_eventHandler.c **** #endif /* CYBLE_BMS_CLIENT */
 132:Generated_Source\PSoC4/BLE_1_eventHandler.c **** #ifdef CYBLE_CGMS_CLIENT
 133:Generated_Source\PSoC4/BLE_1_eventHandler.c ****     {{CYBLE_GATT_INVALID_ATTR_HANDLE_VALUE, CYBLE_GATT_INVALID_ATTR_HANDLE_VALUE}, CYBLE_UUID_CGM_S
 134:Generated_Source\PSoC4/BLE_1_eventHandler.c **** #endif /* CYBLE_CGMS_CLIENT */
 135:Generated_Source\PSoC4/BLE_1_eventHandler.c **** #ifdef CYBLE_CPS_CLIENT
 136:Generated_Source\PSoC4/BLE_1_eventHandler.c ****     {{CYBLE_GATT_INVALID_ATTR_HANDLE_VALUE, CYBLE_GATT_INVALID_ATTR_HANDLE_VALUE}, CYBLE_UUID_CPS_S
 137:Generated_Source\PSoC4/BLE_1_eventHandler.c **** #endif /* CYBLE_CPS_CLIENT */
 138:Generated_Source\PSoC4/BLE_1_eventHandler.c **** #ifdef CYBLE_CSCS_CLIENT
 139:Generated_Source\PSoC4/BLE_1_eventHandler.c ****     {{CYBLE_GATT_INVALID_ATTR_HANDLE_VALUE, CYBLE_GATT_INVALID_ATTR_HANDLE_VALUE}, 
 140:Generated_Source\PSoC4/BLE_1_eventHandler.c ****         CYBLE_UUID_CYCLING_SPEED_AND_CADENCE_SERVICE},
 141:Generated_Source\PSoC4/BLE_1_eventHandler.c **** #endif /* CYBLE_CSCS_CLIENT */
 142:Generated_Source\PSoC4/BLE_1_eventHandler.c **** #ifdef CYBLE_CTS_CLIENT
 143:Generated_Source\PSoC4/BLE_1_eventHandler.c ****     {{CYBLE_GATT_INVALID_ATTR_HANDLE_VALUE, CYBLE_GATT_INVALID_ATTR_HANDLE_VALUE}, CYBLE_UUID_CURRE
 144:Generated_Source\PSoC4/BLE_1_eventHandler.c **** #endif /* CYBLE_CTS_CLIENT */
 145:Generated_Source\PSoC4/BLE_1_eventHandler.c **** #ifdef CYBLE_CUSTOM_CLIENT
ARM GAS  C:\Users\ADMINI~1\AppData\Local\Temp\ccMaTind.s 			page 4


 146:Generated_Source\PSoC4/BLE_1_eventHandler.c ****     
 147:Generated_Source\PSoC4/BLE_1_eventHandler.c **** #endif /* CYBLE_CUSTOM_CLIENT */
 148:Generated_Source\PSoC4/BLE_1_eventHandler.c **** #ifdef CYBLE_DIS_CLIENT
 149:Generated_Source\PSoC4/BLE_1_eventHandler.c ****     {{CYBLE_GATT_INVALID_ATTR_HANDLE_VALUE, CYBLE_GATT_INVALID_ATTR_HANDLE_VALUE}, CYBLE_UUID_DEVIC
 150:Generated_Source\PSoC4/BLE_1_eventHandler.c **** #endif /* CYBLE_DIS_CLIENT */
 151:Generated_Source\PSoC4/BLE_1_eventHandler.c **** #ifdef CYBLE_ESS_CLIENT
 152:Generated_Source\PSoC4/BLE_1_eventHandler.c ****     {{CYBLE_GATT_INVALID_ATTR_HANDLE_VALUE, CYBLE_GATT_INVALID_ATTR_HANDLE_VALUE}, 
 153:Generated_Source\PSoC4/BLE_1_eventHandler.c ****         CYBLE_UUID_ENVIRONMENTAL_SENSING_SERVICE},
 154:Generated_Source\PSoC4/BLE_1_eventHandler.c **** #endif /* CYBLE_ESS_CLIENT */
 155:Generated_Source\PSoC4/BLE_1_eventHandler.c **** #ifdef CYBLE_GLS_CLIENT
 156:Generated_Source\PSoC4/BLE_1_eventHandler.c ****     {{CYBLE_GATT_INVALID_ATTR_HANDLE_VALUE, CYBLE_GATT_INVALID_ATTR_HANDLE_VALUE}, CYBLE_UUID_GLUCO
 157:Generated_Source\PSoC4/BLE_1_eventHandler.c **** #endif /* CYBLE_GLS_CLIENT */
 158:Generated_Source\PSoC4/BLE_1_eventHandler.c **** #ifdef CYBLE_HIDS_CLIENT
 159:Generated_Source\PSoC4/BLE_1_eventHandler.c ****     {{CYBLE_GATT_INVALID_ATTR_HANDLE_VALUE, CYBLE_GATT_INVALID_ATTR_HANDLE_VALUE}, CYBLE_UUID_HIDS_
 160:Generated_Source\PSoC4/BLE_1_eventHandler.c ****     #if(CYBLE_HIDSC_SERVICE_COUNT > 1u) /* Generate it by GUI */
 161:Generated_Source\PSoC4/BLE_1_eventHandler.c ****         
 162:Generated_Source\PSoC4/BLE_1_eventHandler.c ****     #endif /* CYBLE_HIDSC_SERVICE_COUNT > 1u */
 163:Generated_Source\PSoC4/BLE_1_eventHandler.c **** #endif /* CYBLE_HIDS_CLIENT */
 164:Generated_Source\PSoC4/BLE_1_eventHandler.c **** #ifdef CYBLE_HPS_CLIENT
 165:Generated_Source\PSoC4/BLE_1_eventHandler.c ****     {{CYBLE_GATT_INVALID_ATTR_HANDLE_VALUE, CYBLE_GATT_INVALID_ATTR_HANDLE_VALUE}, CYBLE_UUID_HTTP_
 166:Generated_Source\PSoC4/BLE_1_eventHandler.c **** #endif /* CYBLE_HPS_CLIENT */
 167:Generated_Source\PSoC4/BLE_1_eventHandler.c **** #ifdef CYBLE_HRS_CLIENT
 168:Generated_Source\PSoC4/BLE_1_eventHandler.c ****     {{CYBLE_GATT_INVALID_ATTR_HANDLE_VALUE, CYBLE_GATT_INVALID_ATTR_HANDLE_VALUE}, CYBLE_UUID_HEART
 169:Generated_Source\PSoC4/BLE_1_eventHandler.c **** #endif /* CYBLE_HRS_CLIENT */
 170:Generated_Source\PSoC4/BLE_1_eventHandler.c **** #ifdef CYBLE_HTS_CLIENT
 171:Generated_Source\PSoC4/BLE_1_eventHandler.c ****     {{CYBLE_GATT_INVALID_ATTR_HANDLE_VALUE, CYBLE_GATT_INVALID_ATTR_HANDLE_VALUE}, CYBLE_UUID_HEALT
 172:Generated_Source\PSoC4/BLE_1_eventHandler.c **** #endif /* CYBLE_HTS_CLIENT */
 173:Generated_Source\PSoC4/BLE_1_eventHandler.c **** #ifdef CYBLE_IAS_CLIENT
 174:Generated_Source\PSoC4/BLE_1_eventHandler.c ****     {{CYBLE_GATT_INVALID_ATTR_HANDLE_VALUE, CYBLE_GATT_INVALID_ATTR_HANDLE_VALUE}, CYBLE_UUID_IMMED
 175:Generated_Source\PSoC4/BLE_1_eventHandler.c **** #endif /* CYBLE_IAS_CLIENT */
 176:Generated_Source\PSoC4/BLE_1_eventHandler.c **** #ifdef CYBLE_IPS_CLIENT
 177:Generated_Source\PSoC4/BLE_1_eventHandler.c ****     {{CYBLE_GATT_INVALID_ATTR_HANDLE_VALUE, CYBLE_GATT_INVALID_ATTR_HANDLE_VALUE}, CYBLE_UUID_IPS_S
 178:Generated_Source\PSoC4/BLE_1_eventHandler.c **** #endif /* CYBLE_IPS_CLIENT */
 179:Generated_Source\PSoC4/BLE_1_eventHandler.c **** #ifdef CYBLE_LLS_CLIENT
 180:Generated_Source\PSoC4/BLE_1_eventHandler.c ****     {{CYBLE_GATT_INVALID_ATTR_HANDLE_VALUE, CYBLE_GATT_INVALID_ATTR_HANDLE_VALUE}, CYBLE_UUID_LINK_
 181:Generated_Source\PSoC4/BLE_1_eventHandler.c **** #endif /* CYBLE_LLS_CLIENT */
 182:Generated_Source\PSoC4/BLE_1_eventHandler.c **** #ifdef CYBLE_LNS_CLIENT
 183:Generated_Source\PSoC4/BLE_1_eventHandler.c ****     {{CYBLE_GATT_INVALID_ATTR_HANDLE_VALUE, CYBLE_GATT_INVALID_ATTR_HANDLE_VALUE}, CYBLE_UUID_LOCAT
 184:Generated_Source\PSoC4/BLE_1_eventHandler.c **** #endif /* CYBLE_LNS_CLIENT */
 185:Generated_Source\PSoC4/BLE_1_eventHandler.c **** #ifdef CYBLE_NDCS_CLIENT
 186:Generated_Source\PSoC4/BLE_1_eventHandler.c ****     {{CYBLE_GATT_INVALID_ATTR_HANDLE_VALUE, CYBLE_GATT_INVALID_ATTR_HANDLE_VALUE}, CYBLE_UUID_NEXT_
 187:Generated_Source\PSoC4/BLE_1_eventHandler.c **** #endif /* CYBLE_NDCS_CLIENT */
 188:Generated_Source\PSoC4/BLE_1_eventHandler.c **** #ifdef CYBLE_IPSS_CLIENT
 189:Generated_Source\PSoC4/BLE_1_eventHandler.c ****     {{CYBLE_GATT_INVALID_ATTR_HANDLE_VALUE, CYBLE_GATT_INVALID_ATTR_HANDLE_VALUE}, CYBLE_UUID_INTER
 190:Generated_Source\PSoC4/BLE_1_eventHandler.c **** #endif /* CYBLE_IPSS_CLIENT */
 191:Generated_Source\PSoC4/BLE_1_eventHandler.c **** #ifdef CYBLE_PASS_CLIENT
 192:Generated_Source\PSoC4/BLE_1_eventHandler.c ****     {{CYBLE_GATT_INVALID_ATTR_HANDLE_VALUE, CYBLE_GATT_INVALID_ATTR_HANDLE_VALUE}, CYBLE_UUID_PHONE
 193:Generated_Source\PSoC4/BLE_1_eventHandler.c **** #endif /* CYBLE_PASS_CLIENT */
 194:Generated_Source\PSoC4/BLE_1_eventHandler.c **** #ifdef CYBLE_PLXS_CLIENT
 195:Generated_Source\PSoC4/BLE_1_eventHandler.c ****     {{CYBLE_GATT_INVALID_ATTR_HANDLE_VALUE, CYBLE_GATT_INVALID_ATTR_HANDLE_VALUE}, CYBLE_UUID_PLX_S
 196:Generated_Source\PSoC4/BLE_1_eventHandler.c **** #endif /* CYBLE_PLXS_CLIENT */
 197:Generated_Source\PSoC4/BLE_1_eventHandler.c **** #ifdef CYBLE_RSCS_CLIENT
 198:Generated_Source\PSoC4/BLE_1_eventHandler.c ****     {{CYBLE_GATT_INVALID_ATTR_HANDLE_VALUE, CYBLE_GATT_INVALID_ATTR_HANDLE_VALUE}, CYBLE_UUID_RUNNI
 199:Generated_Source\PSoC4/BLE_1_eventHandler.c **** #endif /* CYBLE_RSCS_CLIENT */
 200:Generated_Source\PSoC4/BLE_1_eventHandler.c **** #ifdef CYBLE_RTUS_CLIENT
 201:Generated_Source\PSoC4/BLE_1_eventHandler.c ****     {{CYBLE_GATT_INVALID_ATTR_HANDLE_VALUE, CYBLE_GATT_INVALID_ATTR_HANDLE_VALUE}, CYBLE_UUID_REF_T
 202:Generated_Source\PSoC4/BLE_1_eventHandler.c **** #endif /* CYBLE_RTUS_CLIENT */
ARM GAS  C:\Users\ADMINI~1\AppData\Local\Temp\ccMaTind.s 			page 5


 203:Generated_Source\PSoC4/BLE_1_eventHandler.c **** #ifdef CYBLE_SCPS_CLIENT
 204:Generated_Source\PSoC4/BLE_1_eventHandler.c ****     {{CYBLE_GATT_INVALID_ATTR_HANDLE_VALUE, CYBLE_GATT_INVALID_ATTR_HANDLE_VALUE}, CYBLE_UUID_SCAN_
 205:Generated_Source\PSoC4/BLE_1_eventHandler.c **** #endif /* CYBLE_SCPS_CLIENT */
 206:Generated_Source\PSoC4/BLE_1_eventHandler.c **** #ifdef CYBLE_TPS_CLIENT
 207:Generated_Source\PSoC4/BLE_1_eventHandler.c ****     {{CYBLE_GATT_INVALID_ATTR_HANDLE_VALUE, CYBLE_GATT_INVALID_ATTR_HANDLE_VALUE}, CYBLE_UUID_TX_PO
 208:Generated_Source\PSoC4/BLE_1_eventHandler.c **** #endif /* CYBLE_TPS_CLIENT */
 209:Generated_Source\PSoC4/BLE_1_eventHandler.c **** #ifdef CYBLE_UDS_CLIENT
 210:Generated_Source\PSoC4/BLE_1_eventHandler.c ****     {{CYBLE_GATT_INVALID_ATTR_HANDLE_VALUE, CYBLE_GATT_INVALID_ATTR_HANDLE_VALUE}, CYBLE_UUID_USER_
 211:Generated_Source\PSoC4/BLE_1_eventHandler.c **** #endif /* CYBLE_UDS_CLIENT */
 212:Generated_Source\PSoC4/BLE_1_eventHandler.c **** #ifdef CYBLE_WSS_CLIENT
 213:Generated_Source\PSoC4/BLE_1_eventHandler.c ****     {{CYBLE_GATT_INVALID_ATTR_HANDLE_VALUE, CYBLE_GATT_INVALID_ATTR_HANDLE_VALUE}, CYBLE_UUID_WEIGH
 214:Generated_Source\PSoC4/BLE_1_eventHandler.c **** #endif /* CYBLE_WSS_CLIENT */
 215:Generated_Source\PSoC4/BLE_1_eventHandler.c **** #ifdef CYBLE_WPTS_CLIENT
 216:Generated_Source\PSoC4/BLE_1_eventHandler.c ****     {{CYBLE_GATT_INVALID_ATTR_HANDLE_VALUE, CYBLE_GATT_INVALID_ATTR_HANDLE_VALUE}, CYBLE_UUID_WIREL
 217:Generated_Source\PSoC4/BLE_1_eventHandler.c **** #endif /* CYBLE_WPTS_CLIENT */
 218:Generated_Source\PSoC4/BLE_1_eventHandler.c **** };
 219:Generated_Source\PSoC4/BLE_1_eventHandler.c **** 
 220:Generated_Source\PSoC4/BLE_1_eventHandler.c **** CYBLE_GAPC_T cyBle_gapc;
 221:Generated_Source\PSoC4/BLE_1_eventHandler.c **** 
 222:Generated_Source\PSoC4/BLE_1_eventHandler.c **** #endif /* CYBLE_GATT_ROLE_CLIENT */
 223:Generated_Source\PSoC4/BLE_1_eventHandler.c **** 
 224:Generated_Source\PSoC4/BLE_1_eventHandler.c **** /* Default device security */
 225:Generated_Source\PSoC4/BLE_1_eventHandler.c **** CYBLE_GAP_AUTH_INFO_T cyBle_authInfo =
 226:Generated_Source\PSoC4/BLE_1_eventHandler.c **** {
 227:Generated_Source\PSoC4/BLE_1_eventHandler.c ****     (CYBLE_GAP_SEC_MODE_1 | CYBLE_GAP_SEC_LEVEL_1 ), /* uint8 security */
 228:Generated_Source\PSoC4/BLE_1_eventHandler.c ****     CYBLE_GAP_BONDING, /* uint8 bonding */
 229:Generated_Source\PSoC4/BLE_1_eventHandler.c ****     0x10u,      /* uint8 ekeySize */
 230:Generated_Source\PSoC4/BLE_1_eventHandler.c ****     CYBLE_GAP_AUTH_ERROR_NONE, /* CYBLE_AUTH_FAILED_REASON_T authErr */
 231:Generated_Source\PSoC4/BLE_1_eventHandler.c ****     0x01u,      /* uint8 pairingProperties */
 232:Generated_Source\PSoC4/BLE_1_eventHandler.c **** };
 233:Generated_Source\PSoC4/BLE_1_eventHandler.c **** 
 234:Generated_Source\PSoC4/BLE_1_eventHandler.c **** #if(CYBLE_GATT_ROLE_SERVER)
 235:Generated_Source\PSoC4/BLE_1_eventHandler.c **** 
 236:Generated_Source\PSoC4/BLE_1_eventHandler.c **** 
 237:Generated_Source\PSoC4/BLE_1_eventHandler.c **** /******************************************************************************    
 238:Generated_Source\PSoC4/BLE_1_eventHandler.c **** * Function Name: CyBle_WriteReqHandler
 239:Generated_Source\PSoC4/BLE_1_eventHandler.c **** ***************************************************************************//**
 240:Generated_Source\PSoC4/BLE_1_eventHandler.c **** * 
 241:Generated_Source\PSoC4/BLE_1_eventHandler.c **** *  Handles the Write Request event from BLE stack.
 242:Generated_Source\PSoC4/BLE_1_eventHandler.c **** * 
 243:Generated_Source\PSoC4/BLE_1_eventHandler.c **** *  CYBLE_GATTS_WRITE_REQ_PARAM_T * eventParam - event parameter
 244:Generated_Source\PSoC4/BLE_1_eventHandler.c **** * 
 245:Generated_Source\PSoC4/BLE_1_eventHandler.c **** * \return
 246:Generated_Source\PSoC4/BLE_1_eventHandler.c **** *  None
 247:Generated_Source\PSoC4/BLE_1_eventHandler.c **** * 
 248:Generated_Source\PSoC4/BLE_1_eventHandler.c **** ******************************************************************************/
 249:Generated_Source\PSoC4/BLE_1_eventHandler.c **** static void CyBle_WriteReqHandler(CYBLE_GATTS_WRITE_REQ_PARAM_T *eventParam)
 250:Generated_Source\PSoC4/BLE_1_eventHandler.c **** {
 251:Generated_Source\PSoC4/BLE_1_eventHandler.c ****     CYBLE_GATT_ERR_CODE_T gattErr;
 252:Generated_Source\PSoC4/BLE_1_eventHandler.c **** #if defined CYBLE_CTS_SERVER || defined CYBLE_ESS_SERVER
 253:Generated_Source\PSoC4/BLE_1_eventHandler.c ****     cyBle_gattError = CYBLE_GATT_ERR_NONE;
 254:Generated_Source\PSoC4/BLE_1_eventHandler.c **** #endif /* defined CYBLE_CTS_SERVER || defined CYBLE_ESS_SERVER */
 255:Generated_Source\PSoC4/BLE_1_eventHandler.c ****     
 256:Generated_Source\PSoC4/BLE_1_eventHandler.c ****     gattErr = CyBle_GattsWriteEventHandler(eventParam);
 257:Generated_Source\PSoC4/BLE_1_eventHandler.c **** #ifdef CYBLE_AIOS_SERVER
 258:Generated_Source\PSoC4/BLE_1_eventHandler.c ****     if(((cyBle_eventHandlerFlag & CYBLE_CALLBACK) != 0u) && (gattErr == CYBLE_GATT_ERR_NONE))
 259:Generated_Source\PSoC4/BLE_1_eventHandler.c ****     {
ARM GAS  C:\Users\ADMINI~1\AppData\Local\Temp\ccMaTind.s 			page 6


 260:Generated_Source\PSoC4/BLE_1_eventHandler.c ****         gattErr = CyBle_AiossWriteEventHandler(eventParam);
 261:Generated_Source\PSoC4/BLE_1_eventHandler.c ****     }
 262:Generated_Source\PSoC4/BLE_1_eventHandler.c **** #endif /* CYBLE_AIOS_SERVER */
 263:Generated_Source\PSoC4/BLE_1_eventHandler.c **** #ifdef CYBLE_ANCS_SERVER
 264:Generated_Source\PSoC4/BLE_1_eventHandler.c ****     if(((cyBle_eventHandlerFlag & CYBLE_CALLBACK) != 0u) && (gattErr == CYBLE_GATT_ERR_NONE))
 265:Generated_Source\PSoC4/BLE_1_eventHandler.c ****     {
 266:Generated_Source\PSoC4/BLE_1_eventHandler.c ****         gattErr = CyBle_AncssWriteEventHandler(eventParam);
 267:Generated_Source\PSoC4/BLE_1_eventHandler.c ****     }
 268:Generated_Source\PSoC4/BLE_1_eventHandler.c **** #endif /* CYBLE_ANCS_SERVER */
 269:Generated_Source\PSoC4/BLE_1_eventHandler.c **** #ifdef CYBLE_ANS_SERVER
 270:Generated_Source\PSoC4/BLE_1_eventHandler.c ****     if(((cyBle_eventHandlerFlag & CYBLE_CALLBACK) != 0u) && (gattErr == CYBLE_GATT_ERR_NONE))
 271:Generated_Source\PSoC4/BLE_1_eventHandler.c ****     {
 272:Generated_Source\PSoC4/BLE_1_eventHandler.c ****         gattErr = CyBle_AnssWriteEventHandler(eventParam);
 273:Generated_Source\PSoC4/BLE_1_eventHandler.c ****     }
 274:Generated_Source\PSoC4/BLE_1_eventHandler.c **** #endif /* CYBLE_ANS_SERVER */
 275:Generated_Source\PSoC4/BLE_1_eventHandler.c **** #ifdef CYBLE_BAS_SERVER
 276:Generated_Source\PSoC4/BLE_1_eventHandler.c ****     if(((cyBle_eventHandlerFlag & CYBLE_CALLBACK) != 0u) && (gattErr == CYBLE_GATT_ERR_NONE))
 277:Generated_Source\PSoC4/BLE_1_eventHandler.c ****     {
 278:Generated_Source\PSoC4/BLE_1_eventHandler.c ****         gattErr = CyBle_BassWriteEventHandler(eventParam);
 279:Generated_Source\PSoC4/BLE_1_eventHandler.c ****     }
 280:Generated_Source\PSoC4/BLE_1_eventHandler.c **** #endif /* CYBLE_BAS_SERVER */
 281:Generated_Source\PSoC4/BLE_1_eventHandler.c **** #ifdef CYBLE_BCS_SERVER
 282:Generated_Source\PSoC4/BLE_1_eventHandler.c ****     if(((cyBle_eventHandlerFlag & CYBLE_CALLBACK) != 0u) && (gattErr == CYBLE_GATT_ERR_NONE))
 283:Generated_Source\PSoC4/BLE_1_eventHandler.c ****     {
 284:Generated_Source\PSoC4/BLE_1_eventHandler.c ****         gattErr = CyBle_BcssWriteEventHandler(eventParam);
 285:Generated_Source\PSoC4/BLE_1_eventHandler.c ****     }
 286:Generated_Source\PSoC4/BLE_1_eventHandler.c **** #endif /* CYBLE_BCS_SERVER */
 287:Generated_Source\PSoC4/BLE_1_eventHandler.c **** #ifdef CYBLE_BLS_SERVER
 288:Generated_Source\PSoC4/BLE_1_eventHandler.c ****     if(((cyBle_eventHandlerFlag & CYBLE_CALLBACK) != 0u) && (gattErr == CYBLE_GATT_ERR_NONE))
 289:Generated_Source\PSoC4/BLE_1_eventHandler.c ****     {
 290:Generated_Source\PSoC4/BLE_1_eventHandler.c ****         gattErr = CyBle_BlssWriteEventHandler(eventParam);
 291:Generated_Source\PSoC4/BLE_1_eventHandler.c ****     }
 292:Generated_Source\PSoC4/BLE_1_eventHandler.c **** #endif /* CYBLE_BLS_SERVER */
 293:Generated_Source\PSoC4/BLE_1_eventHandler.c **** #ifdef CYBLE_BMS_SERVER
 294:Generated_Source\PSoC4/BLE_1_eventHandler.c ****     if(((cyBle_eventHandlerFlag & CYBLE_CALLBACK) != 0u) && (gattErr == CYBLE_GATT_ERR_NONE))
 295:Generated_Source\PSoC4/BLE_1_eventHandler.c ****     {
 296:Generated_Source\PSoC4/BLE_1_eventHandler.c ****         gattErr = CyBle_BmssWriteEventHandler(eventParam);
 297:Generated_Source\PSoC4/BLE_1_eventHandler.c ****     }
 298:Generated_Source\PSoC4/BLE_1_eventHandler.c **** #endif /* CYBLE_BMS_SERVER */
 299:Generated_Source\PSoC4/BLE_1_eventHandler.c **** #ifdef CYBLE_BTS_SERVER
 300:Generated_Source\PSoC4/BLE_1_eventHandler.c ****     if((cyBle_eventHandlerFlag & CYBLE_CALLBACK) != 0u)
 301:Generated_Source\PSoC4/BLE_1_eventHandler.c ****     {
 302:Generated_Source\PSoC4/BLE_1_eventHandler.c ****         gattErr = CyBle_BtsWriteEventHandler(eventParam);
 303:Generated_Source\PSoC4/BLE_1_eventHandler.c ****     }
 304:Generated_Source\PSoC4/BLE_1_eventHandler.c **** #endif /* CYBLE_BTS_SERVER */
 305:Generated_Source\PSoC4/BLE_1_eventHandler.c **** #ifdef CYBLE_CGMS_SERVER
 306:Generated_Source\PSoC4/BLE_1_eventHandler.c ****     if(((cyBle_eventHandlerFlag & CYBLE_CALLBACK) != 0u) && (gattErr == CYBLE_GATT_ERR_NONE))
 307:Generated_Source\PSoC4/BLE_1_eventHandler.c ****     {
 308:Generated_Source\PSoC4/BLE_1_eventHandler.c ****         gattErr = CyBle_CgmssWriteEventHandler(eventParam);
 309:Generated_Source\PSoC4/BLE_1_eventHandler.c ****     }
 310:Generated_Source\PSoC4/BLE_1_eventHandler.c **** #endif /* CYBLE_CGMS_SERVER */
 311:Generated_Source\PSoC4/BLE_1_eventHandler.c **** #ifdef CYBLE_CPS_SERVER
 312:Generated_Source\PSoC4/BLE_1_eventHandler.c ****     if(((cyBle_eventHandlerFlag & CYBLE_CALLBACK) != 0u) && (gattErr == CYBLE_GATT_ERR_NONE))
 313:Generated_Source\PSoC4/BLE_1_eventHandler.c ****     {
 314:Generated_Source\PSoC4/BLE_1_eventHandler.c ****         gattErr = CyBle_CpssWriteEventHandler(eventParam);
 315:Generated_Source\PSoC4/BLE_1_eventHandler.c ****     }
 316:Generated_Source\PSoC4/BLE_1_eventHandler.c **** #endif /* CYBLE_CPS_SERVER */
ARM GAS  C:\Users\ADMINI~1\AppData\Local\Temp\ccMaTind.s 			page 7


 317:Generated_Source\PSoC4/BLE_1_eventHandler.c **** #ifdef CYBLE_CSCS_SERVER
 318:Generated_Source\PSoC4/BLE_1_eventHandler.c ****     if(((cyBle_eventHandlerFlag & CYBLE_CALLBACK) != 0u) && (gattErr == CYBLE_GATT_ERR_NONE))
 319:Generated_Source\PSoC4/BLE_1_eventHandler.c ****     {
 320:Generated_Source\PSoC4/BLE_1_eventHandler.c ****         gattErr = CyBle_CscssWriteEventHandler(eventParam);
 321:Generated_Source\PSoC4/BLE_1_eventHandler.c ****     }
 322:Generated_Source\PSoC4/BLE_1_eventHandler.c **** #endif /* CYBLE_CSCS_SERVER */
 323:Generated_Source\PSoC4/BLE_1_eventHandler.c **** #ifdef CYBLE_CTS_SERVER
 324:Generated_Source\PSoC4/BLE_1_eventHandler.c ****     if(((cyBle_eventHandlerFlag & CYBLE_CALLBACK) != 0u) && (gattErr == CYBLE_GATT_ERR_NONE))
 325:Generated_Source\PSoC4/BLE_1_eventHandler.c ****     {
 326:Generated_Source\PSoC4/BLE_1_eventHandler.c ****         gattErr = CyBle_CtssWriteEventHandler(eventParam);
 327:Generated_Source\PSoC4/BLE_1_eventHandler.c ****     }
 328:Generated_Source\PSoC4/BLE_1_eventHandler.c **** #endif /* CYBLE_CTS_SERVER */
 329:Generated_Source\PSoC4/BLE_1_eventHandler.c **** #ifdef CYBLE_ESS_SERVER
 330:Generated_Source\PSoC4/BLE_1_eventHandler.c ****     if(((cyBle_eventHandlerFlag & CYBLE_CALLBACK) != 0u) && (gattErr == CYBLE_GATT_ERR_NONE))
 331:Generated_Source\PSoC4/BLE_1_eventHandler.c ****     {
 332:Generated_Source\PSoC4/BLE_1_eventHandler.c ****         gattErr = CyBle_EsssWriteEventHandler(eventParam);
 333:Generated_Source\PSoC4/BLE_1_eventHandler.c ****     }
 334:Generated_Source\PSoC4/BLE_1_eventHandler.c **** #endif /* CYBLE_ESS_SERVER */
 335:Generated_Source\PSoC4/BLE_1_eventHandler.c **** #ifdef CYBLE_GLS_SERVER
 336:Generated_Source\PSoC4/BLE_1_eventHandler.c ****     if(((cyBle_eventHandlerFlag & CYBLE_CALLBACK) != 0u) && (gattErr == CYBLE_GATT_ERR_NONE))
 337:Generated_Source\PSoC4/BLE_1_eventHandler.c ****     {
 338:Generated_Source\PSoC4/BLE_1_eventHandler.c ****         gattErr = CyBle_GlssWriteEventHandler(eventParam);
 339:Generated_Source\PSoC4/BLE_1_eventHandler.c ****     }
 340:Generated_Source\PSoC4/BLE_1_eventHandler.c **** #endif /* CYBLE_GLS_SERVER */
 341:Generated_Source\PSoC4/BLE_1_eventHandler.c **** #ifdef CYBLE_HIDS_SERVER
 342:Generated_Source\PSoC4/BLE_1_eventHandler.c ****     if(((cyBle_eventHandlerFlag & CYBLE_CALLBACK) != 0u) && (gattErr == CYBLE_GATT_ERR_NONE))
 343:Generated_Source\PSoC4/BLE_1_eventHandler.c ****     {
 344:Generated_Source\PSoC4/BLE_1_eventHandler.c ****         gattErr = CyBle_HidssWriteEventHandler(eventParam);
 345:Generated_Source\PSoC4/BLE_1_eventHandler.c ****     }
 346:Generated_Source\PSoC4/BLE_1_eventHandler.c **** #endif /* CYBLE_HIDS_SERVER */
 347:Generated_Source\PSoC4/BLE_1_eventHandler.c **** #ifdef CYBLE_HPS_SERVER
 348:Generated_Source\PSoC4/BLE_1_eventHandler.c ****     if(((cyBle_eventHandlerFlag & CYBLE_CALLBACK) != 0u) && (gattErr == CYBLE_GATT_ERR_NONE))
 349:Generated_Source\PSoC4/BLE_1_eventHandler.c ****     {
 350:Generated_Source\PSoC4/BLE_1_eventHandler.c ****         gattErr = CyBle_HpssWriteEventHandler(eventParam);
 351:Generated_Source\PSoC4/BLE_1_eventHandler.c ****     }
 352:Generated_Source\PSoC4/BLE_1_eventHandler.c **** #endif /* CYBLE_HPS_SERVER */
 353:Generated_Source\PSoC4/BLE_1_eventHandler.c **** #ifdef CYBLE_HRS_SERVER
 354:Generated_Source\PSoC4/BLE_1_eventHandler.c ****     if(((cyBle_eventHandlerFlag & CYBLE_CALLBACK) != 0u) && (gattErr == CYBLE_GATT_ERR_NONE))
 355:Generated_Source\PSoC4/BLE_1_eventHandler.c ****     {
 356:Generated_Source\PSoC4/BLE_1_eventHandler.c ****         gattErr = CyBle_HrssWriteEventHandler(eventParam);
 357:Generated_Source\PSoC4/BLE_1_eventHandler.c ****     }
 358:Generated_Source\PSoC4/BLE_1_eventHandler.c **** #endif /* CYBLE_HRS_SERVER */
 359:Generated_Source\PSoC4/BLE_1_eventHandler.c **** #ifdef CYBLE_HTS_SERVER
 360:Generated_Source\PSoC4/BLE_1_eventHandler.c ****     if(((cyBle_eventHandlerFlag & CYBLE_CALLBACK) != 0u) && (gattErr == CYBLE_GATT_ERR_NONE))
 361:Generated_Source\PSoC4/BLE_1_eventHandler.c ****     {
 362:Generated_Source\PSoC4/BLE_1_eventHandler.c ****         gattErr = CyBle_HtssWriteEventHandler(eventParam);
 363:Generated_Source\PSoC4/BLE_1_eventHandler.c ****     }
 364:Generated_Source\PSoC4/BLE_1_eventHandler.c **** #endif /* CYBLE_HTS_SERVER */
 365:Generated_Source\PSoC4/BLE_1_eventHandler.c **** #ifdef CYBLE_IPS_SERVER
 366:Generated_Source\PSoC4/BLE_1_eventHandler.c ****     if(((cyBle_eventHandlerFlag & CYBLE_CALLBACK) != 0u) && (gattErr == CYBLE_GATT_ERR_NONE))
 367:Generated_Source\PSoC4/BLE_1_eventHandler.c ****     {
 368:Generated_Source\PSoC4/BLE_1_eventHandler.c ****         gattErr = CyBle_IpssWriteEventHandler(eventParam);
 369:Generated_Source\PSoC4/BLE_1_eventHandler.c ****     }
 370:Generated_Source\PSoC4/BLE_1_eventHandler.c **** #endif /* CYBLE_IPS_SERVER */
 371:Generated_Source\PSoC4/BLE_1_eventHandler.c **** #ifdef CYBLE_LLS_SERVER
 372:Generated_Source\PSoC4/BLE_1_eventHandler.c ****     if(((cyBle_eventHandlerFlag & CYBLE_CALLBACK) != 0u) && (gattErr == CYBLE_GATT_ERR_NONE))
 373:Generated_Source\PSoC4/BLE_1_eventHandler.c ****     {
ARM GAS  C:\Users\ADMINI~1\AppData\Local\Temp\ccMaTind.s 			page 8


 374:Generated_Source\PSoC4/BLE_1_eventHandler.c ****         gattErr = CyBle_LlssWriteEventHandler(eventParam);
 375:Generated_Source\PSoC4/BLE_1_eventHandler.c ****     }
 376:Generated_Source\PSoC4/BLE_1_eventHandler.c **** #endif /* CYBLE_LLS_SERVER */
 377:Generated_Source\PSoC4/BLE_1_eventHandler.c **** #ifdef CYBLE_LNS_SERVER
 378:Generated_Source\PSoC4/BLE_1_eventHandler.c ****     if(((cyBle_eventHandlerFlag & CYBLE_CALLBACK) != 0u) && (gattErr == CYBLE_GATT_ERR_NONE))
 379:Generated_Source\PSoC4/BLE_1_eventHandler.c ****     {
 380:Generated_Source\PSoC4/BLE_1_eventHandler.c ****         gattErr = CyBle_LnssWriteEventHandler(eventParam);
 381:Generated_Source\PSoC4/BLE_1_eventHandler.c ****     }
 382:Generated_Source\PSoC4/BLE_1_eventHandler.c **** #endif /* CYBLE_LNS_SERVER */
 383:Generated_Source\PSoC4/BLE_1_eventHandler.c **** #ifdef CYBLE_PASS_SERVER
 384:Generated_Source\PSoC4/BLE_1_eventHandler.c ****     if(((cyBle_eventHandlerFlag & CYBLE_CALLBACK) != 0u) && (gattErr == CYBLE_GATT_ERR_NONE))
 385:Generated_Source\PSoC4/BLE_1_eventHandler.c ****     {
 386:Generated_Source\PSoC4/BLE_1_eventHandler.c ****         gattErr = CyBle_PasssWriteEventHandler(eventParam);
 387:Generated_Source\PSoC4/BLE_1_eventHandler.c ****     }
 388:Generated_Source\PSoC4/BLE_1_eventHandler.c **** #endif /* CYBLE_PASS_SERVER */
 389:Generated_Source\PSoC4/BLE_1_eventHandler.c **** #ifdef CYBLE_PLXS_SERVER
 390:Generated_Source\PSoC4/BLE_1_eventHandler.c ****     if(((cyBle_eventHandlerFlag & CYBLE_CALLBACK) != 0u) && (gattErr == CYBLE_GATT_ERR_NONE))
 391:Generated_Source\PSoC4/BLE_1_eventHandler.c ****     {
 392:Generated_Source\PSoC4/BLE_1_eventHandler.c ****         gattErr = CyBle_PlxssWriteEventHandler(eventParam);
 393:Generated_Source\PSoC4/BLE_1_eventHandler.c ****     }
 394:Generated_Source\PSoC4/BLE_1_eventHandler.c **** #endif /* CYBLE_PLXS_SERVER */    
 395:Generated_Source\PSoC4/BLE_1_eventHandler.c **** #ifdef CYBLE_RSCS_SERVER
 396:Generated_Source\PSoC4/BLE_1_eventHandler.c ****     if(((cyBle_eventHandlerFlag & CYBLE_CALLBACK) != 0u) && (gattErr == CYBLE_GATT_ERR_NONE))
 397:Generated_Source\PSoC4/BLE_1_eventHandler.c ****     {
 398:Generated_Source\PSoC4/BLE_1_eventHandler.c ****         gattErr = CyBle_RscssWriteEventHandler(eventParam);
 399:Generated_Source\PSoC4/BLE_1_eventHandler.c ****     }
 400:Generated_Source\PSoC4/BLE_1_eventHandler.c **** #endif /* CYBLE_RSCS_SERVER */
 401:Generated_Source\PSoC4/BLE_1_eventHandler.c **** #ifdef CYBLE_SCPS_SERVER
 402:Generated_Source\PSoC4/BLE_1_eventHandler.c ****     if(((cyBle_eventHandlerFlag & CYBLE_CALLBACK) != 0u) && (gattErr == CYBLE_GATT_ERR_NONE))
 403:Generated_Source\PSoC4/BLE_1_eventHandler.c ****     {
 404:Generated_Source\PSoC4/BLE_1_eventHandler.c ****         gattErr = CyBle_ScpssWriteEventHandler(eventParam);
 405:Generated_Source\PSoC4/BLE_1_eventHandler.c ****     }
 406:Generated_Source\PSoC4/BLE_1_eventHandler.c **** #endif /* CYBLE_SCPS_SERVER */
 407:Generated_Source\PSoC4/BLE_1_eventHandler.c **** #ifdef CYBLE_TPS_SERVER
 408:Generated_Source\PSoC4/BLE_1_eventHandler.c ****     if(((cyBle_eventHandlerFlag & CYBLE_CALLBACK) != 0u) && (gattErr == CYBLE_GATT_ERR_NONE))
 409:Generated_Source\PSoC4/BLE_1_eventHandler.c ****     {
 410:Generated_Source\PSoC4/BLE_1_eventHandler.c ****         gattErr = CyBle_TpssWriteEventHandler(eventParam);
 411:Generated_Source\PSoC4/BLE_1_eventHandler.c ****     }
 412:Generated_Source\PSoC4/BLE_1_eventHandler.c **** #endif /* CYBLE_TPS_SERVER */
 413:Generated_Source\PSoC4/BLE_1_eventHandler.c **** #ifdef CYBLE_UDS_SERVER
 414:Generated_Source\PSoC4/BLE_1_eventHandler.c ****     if(((cyBle_eventHandlerFlag & CYBLE_CALLBACK) != 0u) && (gattErr == CYBLE_GATT_ERR_NONE))
 415:Generated_Source\PSoC4/BLE_1_eventHandler.c ****     {
 416:Generated_Source\PSoC4/BLE_1_eventHandler.c ****         gattErr = CyBle_UdssWriteEventHandler(eventParam);
 417:Generated_Source\PSoC4/BLE_1_eventHandler.c ****     }
 418:Generated_Source\PSoC4/BLE_1_eventHandler.c **** #endif /* CYBLE_UDS_SERVER */
 419:Generated_Source\PSoC4/BLE_1_eventHandler.c **** #ifdef CYBLE_WPTS_SERVER
 420:Generated_Source\PSoC4/BLE_1_eventHandler.c ****     if(((cyBle_eventHandlerFlag & CYBLE_CALLBACK) != 0u) && (gattErr == CYBLE_GATT_ERR_NONE))
 421:Generated_Source\PSoC4/BLE_1_eventHandler.c ****     {
 422:Generated_Source\PSoC4/BLE_1_eventHandler.c ****         gattErr = CyBle_WptssWriteEventHandler(eventParam);
 423:Generated_Source\PSoC4/BLE_1_eventHandler.c ****     }
 424:Generated_Source\PSoC4/BLE_1_eventHandler.c **** #endif /* CYBLE_WPTS_SERVER */
 425:Generated_Source\PSoC4/BLE_1_eventHandler.c **** #ifdef CYBLE_WSS_SERVER
 426:Generated_Source\PSoC4/BLE_1_eventHandler.c ****     if(((cyBle_eventHandlerFlag & CYBLE_CALLBACK) != 0u) && (gattErr == CYBLE_GATT_ERR_NONE))
 427:Generated_Source\PSoC4/BLE_1_eventHandler.c ****     {
 428:Generated_Source\PSoC4/BLE_1_eventHandler.c ****         gattErr = CyBle_WsssWriteEventHandler(eventParam);
 429:Generated_Source\PSoC4/BLE_1_eventHandler.c ****     }
 430:Generated_Source\PSoC4/BLE_1_eventHandler.c **** #endif /* CYBLE_WSS_SERVER */
ARM GAS  C:\Users\ADMINI~1\AppData\Local\Temp\ccMaTind.s 			page 9


 431:Generated_Source\PSoC4/BLE_1_eventHandler.c **** 
 432:Generated_Source\PSoC4/BLE_1_eventHandler.c ****     /* Send response when event was handled by service */
 433:Generated_Source\PSoC4/BLE_1_eventHandler.c ****     if((cyBle_eventHandlerFlag & CYBLE_CALLBACK) == 0u)
 434:Generated_Source\PSoC4/BLE_1_eventHandler.c ****     {
 435:Generated_Source\PSoC4/BLE_1_eventHandler.c ****         if(gattErr != CYBLE_GATT_ERR_NONE)
 436:Generated_Source\PSoC4/BLE_1_eventHandler.c ****         {
 437:Generated_Source\PSoC4/BLE_1_eventHandler.c ****             CYBLE_GATTS_ERR_PARAM_T err_param;
 438:Generated_Source\PSoC4/BLE_1_eventHandler.c ****             
 439:Generated_Source\PSoC4/BLE_1_eventHandler.c ****             err_param.opcode = (uint8) CYBLE_GATT_WRITE_REQ;
 440:Generated_Source\PSoC4/BLE_1_eventHandler.c ****             err_param.attrHandle = eventParam->handleValPair.attrHandle;
 441:Generated_Source\PSoC4/BLE_1_eventHandler.c ****             err_param.errorCode = gattErr;
 442:Generated_Source\PSoC4/BLE_1_eventHandler.c **** 
 443:Generated_Source\PSoC4/BLE_1_eventHandler.c ****             /* Send Error Response */
 444:Generated_Source\PSoC4/BLE_1_eventHandler.c ****             (void)CyBle_GattsErrorRsp(eventParam->connHandle, &err_param);
 445:Generated_Source\PSoC4/BLE_1_eventHandler.c ****         }
 446:Generated_Source\PSoC4/BLE_1_eventHandler.c ****         else
 447:Generated_Source\PSoC4/BLE_1_eventHandler.c ****         {
 448:Generated_Source\PSoC4/BLE_1_eventHandler.c ****             (void)CyBle_GattsWriteRsp(eventParam->connHandle);
 449:Generated_Source\PSoC4/BLE_1_eventHandler.c ****         }
 450:Generated_Source\PSoC4/BLE_1_eventHandler.c ****     }
 451:Generated_Source\PSoC4/BLE_1_eventHandler.c **** }
 452:Generated_Source\PSoC4/BLE_1_eventHandler.c **** 
 453:Generated_Source\PSoC4/BLE_1_eventHandler.c **** 
 454:Generated_Source\PSoC4/BLE_1_eventHandler.c **** /****************************************************************************** 
 455:Generated_Source\PSoC4/BLE_1_eventHandler.c **** * Function Name: CyBle_ValueConfirmation
 456:Generated_Source\PSoC4/BLE_1_eventHandler.c **** ***************************************************************************//**
 457:Generated_Source\PSoC4/BLE_1_eventHandler.c **** * 
 458:Generated_Source\PSoC4/BLE_1_eventHandler.c **** *  Handles the Value Confirmation request event from the BLE stack.
 459:Generated_Source\PSoC4/BLE_1_eventHandler.c **** * 
 460:Generated_Source\PSoC4/BLE_1_eventHandler.c **** *  \param eventParam: Pointer to a structure of type 'CYBLE_CONN_HANDLE_T'
 461:Generated_Source\PSoC4/BLE_1_eventHandler.c **** * 
 462:Generated_Source\PSoC4/BLE_1_eventHandler.c **** * \return
 463:Generated_Source\PSoC4/BLE_1_eventHandler.c **** *  None
 464:Generated_Source\PSoC4/BLE_1_eventHandler.c **** * 
 465:Generated_Source\PSoC4/BLE_1_eventHandler.c **** ******************************************************************************/
 466:Generated_Source\PSoC4/BLE_1_eventHandler.c **** static void CyBle_ValueConfirmation(const CYBLE_CONN_HANDLE_T *eventParam)
 467:Generated_Source\PSoC4/BLE_1_eventHandler.c **** {
 468:Generated_Source\PSoC4/BLE_1_eventHandler.c ****     if(eventParam != NULL)
 469:Generated_Source\PSoC4/BLE_1_eventHandler.c ****     {
 470:Generated_Source\PSoC4/BLE_1_eventHandler.c ****     #ifdef CYBLE_AIOS_SERVER
 471:Generated_Source\PSoC4/BLE_1_eventHandler.c ****         if((cyBle_eventHandlerFlag & CYBLE_CALLBACK) != 0u)
 472:Generated_Source\PSoC4/BLE_1_eventHandler.c ****         {
 473:Generated_Source\PSoC4/BLE_1_eventHandler.c ****             CyBle_AiossConfirmationEventHandler(eventParam);
 474:Generated_Source\PSoC4/BLE_1_eventHandler.c ****         }
 475:Generated_Source\PSoC4/BLE_1_eventHandler.c ****     #endif /* CYBLE_AIOS_SERVER */
 476:Generated_Source\PSoC4/BLE_1_eventHandler.c ****     #ifdef CYBLE_BCS_SERVER
 477:Generated_Source\PSoC4/BLE_1_eventHandler.c ****         CyBle_BcssConfirmationEventHandler(eventParam);
 478:Generated_Source\PSoC4/BLE_1_eventHandler.c ****     #endif /* CYBLE_BCS_SERVER */
 479:Generated_Source\PSoC4/BLE_1_eventHandler.c ****     #ifdef CYBLE_BLS_SERVER
 480:Generated_Source\PSoC4/BLE_1_eventHandler.c ****         if((cyBle_eventHandlerFlag & CYBLE_CALLBACK) != 0u)
 481:Generated_Source\PSoC4/BLE_1_eventHandler.c ****         {
 482:Generated_Source\PSoC4/BLE_1_eventHandler.c ****             CyBle_BlssConfirmationEventHandler(eventParam);
 483:Generated_Source\PSoC4/BLE_1_eventHandler.c ****         }
 484:Generated_Source\PSoC4/BLE_1_eventHandler.c ****     #endif /* CYBLE_BLS_SERVER */
 485:Generated_Source\PSoC4/BLE_1_eventHandler.c ****     
 486:Generated_Source\PSoC4/BLE_1_eventHandler.c ****     #ifdef CYBLE_CGMS_SERVER
 487:Generated_Source\PSoC4/BLE_1_eventHandler.c ****         if((cyBle_eventHandlerFlag & CYBLE_CALLBACK) != 0u)
ARM GAS  C:\Users\ADMINI~1\AppData\Local\Temp\ccMaTind.s 			page 10


 488:Generated_Source\PSoC4/BLE_1_eventHandler.c ****         {
 489:Generated_Source\PSoC4/BLE_1_eventHandler.c ****             CyBle_CgmssConfirmationEventHandler(eventParam);
 490:Generated_Source\PSoC4/BLE_1_eventHandler.c ****         }
 491:Generated_Source\PSoC4/BLE_1_eventHandler.c ****     #endif /* CYBLE_CGMS_SERVER */
 492:Generated_Source\PSoC4/BLE_1_eventHandler.c ****     
 493:Generated_Source\PSoC4/BLE_1_eventHandler.c ****     #ifdef CYBLE_CPS_SERVER
 494:Generated_Source\PSoC4/BLE_1_eventHandler.c ****         if((cyBle_eventHandlerFlag & CYBLE_CALLBACK) != 0u)
 495:Generated_Source\PSoC4/BLE_1_eventHandler.c ****         {
 496:Generated_Source\PSoC4/BLE_1_eventHandler.c ****             CyBle_CpssConfirmationEventHandler(eventParam);
 497:Generated_Source\PSoC4/BLE_1_eventHandler.c ****         }
 498:Generated_Source\PSoC4/BLE_1_eventHandler.c ****     #endif /* CYBLE_CPS_SERVER */
 499:Generated_Source\PSoC4/BLE_1_eventHandler.c ****     
 500:Generated_Source\PSoC4/BLE_1_eventHandler.c ****     #ifdef CYBLE_CSCS_SERVER
 501:Generated_Source\PSoC4/BLE_1_eventHandler.c ****         if((cyBle_eventHandlerFlag & CYBLE_CALLBACK) != 0u)
 502:Generated_Source\PSoC4/BLE_1_eventHandler.c ****         {
 503:Generated_Source\PSoC4/BLE_1_eventHandler.c ****             CyBle_CscssConfirmationEventHandler(eventParam);
 504:Generated_Source\PSoC4/BLE_1_eventHandler.c ****         }
 505:Generated_Source\PSoC4/BLE_1_eventHandler.c ****     #endif /* CYBLE_CSCS_SERVER */
 506:Generated_Source\PSoC4/BLE_1_eventHandler.c ****     
 507:Generated_Source\PSoC4/BLE_1_eventHandler.c ****     #ifdef CYBLE_ESS_SERVER
 508:Generated_Source\PSoC4/BLE_1_eventHandler.c ****         if((cyBle_eventHandlerFlag & CYBLE_CALLBACK) != 0u)
 509:Generated_Source\PSoC4/BLE_1_eventHandler.c ****         {
 510:Generated_Source\PSoC4/BLE_1_eventHandler.c ****             CyBle_EsssConfirmationEventHandler(eventParam);
 511:Generated_Source\PSoC4/BLE_1_eventHandler.c ****         }
 512:Generated_Source\PSoC4/BLE_1_eventHandler.c ****     #endif /* CYBLE_ESS_SERVER */
 513:Generated_Source\PSoC4/BLE_1_eventHandler.c ****     
 514:Generated_Source\PSoC4/BLE_1_eventHandler.c ****     #ifdef CYBLE_GLS_SERVER
 515:Generated_Source\PSoC4/BLE_1_eventHandler.c ****         if((cyBle_eventHandlerFlag & CYBLE_CALLBACK) != 0u)
 516:Generated_Source\PSoC4/BLE_1_eventHandler.c ****         {
 517:Generated_Source\PSoC4/BLE_1_eventHandler.c ****             CyBle_GlssConfirmationEventHandler(eventParam);
 518:Generated_Source\PSoC4/BLE_1_eventHandler.c ****         }
 519:Generated_Source\PSoC4/BLE_1_eventHandler.c ****     #endif /* CYBLE_GLS_SERVER */
 520:Generated_Source\PSoC4/BLE_1_eventHandler.c ****     
 521:Generated_Source\PSoC4/BLE_1_eventHandler.c ****     #ifdef CYBLE_HTS_SERVER
 522:Generated_Source\PSoC4/BLE_1_eventHandler.c ****         if((cyBle_eventHandlerFlag & CYBLE_CALLBACK) != 0u)
 523:Generated_Source\PSoC4/BLE_1_eventHandler.c ****         {
 524:Generated_Source\PSoC4/BLE_1_eventHandler.c ****             CyBle_HtssConfirmationEventHandler(eventParam);
 525:Generated_Source\PSoC4/BLE_1_eventHandler.c ****         }
 526:Generated_Source\PSoC4/BLE_1_eventHandler.c ****     #endif /* CYBLE_HTS_SERVER */
 527:Generated_Source\PSoC4/BLE_1_eventHandler.c **** 
 528:Generated_Source\PSoC4/BLE_1_eventHandler.c ****     #ifdef CYBLE_LNS_SERVER
 529:Generated_Source\PSoC4/BLE_1_eventHandler.c ****         if((cyBle_eventHandlerFlag & CYBLE_CALLBACK) != 0u)
 530:Generated_Source\PSoC4/BLE_1_eventHandler.c ****         {
 531:Generated_Source\PSoC4/BLE_1_eventHandler.c ****             CyBle_LnssConfirmationEventHandler(eventParam);
 532:Generated_Source\PSoC4/BLE_1_eventHandler.c ****         }
 533:Generated_Source\PSoC4/BLE_1_eventHandler.c ****     #endif /* CYBLE_LNS_SERVER */
 534:Generated_Source\PSoC4/BLE_1_eventHandler.c ****     
 535:Generated_Source\PSoC4/BLE_1_eventHandler.c ****     #ifdef CYBLE_PLXS_SERVER
 536:Generated_Source\PSoC4/BLE_1_eventHandler.c ****         if((cyBle_eventHandlerFlag & CYBLE_CALLBACK) != 0u)
 537:Generated_Source\PSoC4/BLE_1_eventHandler.c ****         {
 538:Generated_Source\PSoC4/BLE_1_eventHandler.c ****             CyBle_PlxssConfirmationEventHandler((CYBLE_CONN_HANDLE_T *)eventParam);
 539:Generated_Source\PSoC4/BLE_1_eventHandler.c ****         }
 540:Generated_Source\PSoC4/BLE_1_eventHandler.c ****     #endif /* CYBLE_PLXS_SERVER */
 541:Generated_Source\PSoC4/BLE_1_eventHandler.c ****     
 542:Generated_Source\PSoC4/BLE_1_eventHandler.c ****     #ifdef CYBLE_RSCS_SERVER
 543:Generated_Source\PSoC4/BLE_1_eventHandler.c ****         if((cyBle_eventHandlerFlag & CYBLE_CALLBACK) != 0u)
 544:Generated_Source\PSoC4/BLE_1_eventHandler.c ****         {
ARM GAS  C:\Users\ADMINI~1\AppData\Local\Temp\ccMaTind.s 			page 11


 545:Generated_Source\PSoC4/BLE_1_eventHandler.c ****             CyBle_RscssConfirmationEventHandler(eventParam);
 546:Generated_Source\PSoC4/BLE_1_eventHandler.c ****         }
 547:Generated_Source\PSoC4/BLE_1_eventHandler.c ****     #endif /* CYBLE_RSCS_SERVER */
 548:Generated_Source\PSoC4/BLE_1_eventHandler.c ****     
 549:Generated_Source\PSoC4/BLE_1_eventHandler.c ****     #ifdef CYBLE_UDS_SERVER
 550:Generated_Source\PSoC4/BLE_1_eventHandler.c ****         if((cyBle_eventHandlerFlag & CYBLE_CALLBACK) != 0u)
 551:Generated_Source\PSoC4/BLE_1_eventHandler.c ****         {
 552:Generated_Source\PSoC4/BLE_1_eventHandler.c ****             CyBle_UdssConfirmationEventHandler(eventParam);
 553:Generated_Source\PSoC4/BLE_1_eventHandler.c ****         }
 554:Generated_Source\PSoC4/BLE_1_eventHandler.c ****     #endif /* CYBLE_UDS_SERVER */
 555:Generated_Source\PSoC4/BLE_1_eventHandler.c ****     
 556:Generated_Source\PSoC4/BLE_1_eventHandler.c ****     #ifdef CYBLE_WPTS_SERVER
 557:Generated_Source\PSoC4/BLE_1_eventHandler.c ****         if((cyBle_eventHandlerFlag & CYBLE_CALLBACK) != 0u)
 558:Generated_Source\PSoC4/BLE_1_eventHandler.c ****         {
 559:Generated_Source\PSoC4/BLE_1_eventHandler.c ****             CyBle_WptssConfirmationEventHandler(eventParam);
 560:Generated_Source\PSoC4/BLE_1_eventHandler.c ****         }
 561:Generated_Source\PSoC4/BLE_1_eventHandler.c ****     #endif /* CYBLE_WPTS_SERVER */
 562:Generated_Source\PSoC4/BLE_1_eventHandler.c ****     
 563:Generated_Source\PSoC4/BLE_1_eventHandler.c ****     #ifdef CYBLE_WSS_SERVER
 564:Generated_Source\PSoC4/BLE_1_eventHandler.c ****         if((cyBle_eventHandlerFlag & CYBLE_CALLBACK) != 0u)
 565:Generated_Source\PSoC4/BLE_1_eventHandler.c ****         {
 566:Generated_Source\PSoC4/BLE_1_eventHandler.c ****             CyBle_WsssConfirmationEventHandler(eventParam);
 567:Generated_Source\PSoC4/BLE_1_eventHandler.c ****         }
 568:Generated_Source\PSoC4/BLE_1_eventHandler.c ****     #endif /* CYBLE_WSS_SERVER */
 569:Generated_Source\PSoC4/BLE_1_eventHandler.c ****     }
 570:Generated_Source\PSoC4/BLE_1_eventHandler.c **** }
 571:Generated_Source\PSoC4/BLE_1_eventHandler.c **** 
 572:Generated_Source\PSoC4/BLE_1_eventHandler.c **** #endif /* CYBLE_GATT_ROLE_SERVER */
 573:Generated_Source\PSoC4/BLE_1_eventHandler.c **** 
 574:Generated_Source\PSoC4/BLE_1_eventHandler.c **** 
 575:Generated_Source\PSoC4/BLE_1_eventHandler.c **** #if (CYBLE_GATT_ROLE_CLIENT)
 576:Generated_Source\PSoC4/BLE_1_eventHandler.c **** 
 577:Generated_Source\PSoC4/BLE_1_eventHandler.c **** /****************************************************************************** 
 578:Generated_Source\PSoC4/BLE_1_eventHandler.c **** * Function Name: CyBle_GattcWriteResponseEventHandler
 579:Generated_Source\PSoC4/BLE_1_eventHandler.c **** ***************************************************************************//**
 580:Generated_Source\PSoC4/BLE_1_eventHandler.c **** * 
 581:Generated_Source\PSoC4/BLE_1_eventHandler.c **** *  Handles the Write response event from the BLE stack.
 582:Generated_Source\PSoC4/BLE_1_eventHandler.c **** * 
 583:Generated_Source\PSoC4/BLE_1_eventHandler.c **** *  \param eventParam: Pointer to a structure of type 'CYBLE_CONN_HANDLE_T'
 584:Generated_Source\PSoC4/BLE_1_eventHandler.c **** * 
 585:Generated_Source\PSoC4/BLE_1_eventHandler.c **** * \return
 586:Generated_Source\PSoC4/BLE_1_eventHandler.c **** *  None
 587:Generated_Source\PSoC4/BLE_1_eventHandler.c **** * 
 588:Generated_Source\PSoC4/BLE_1_eventHandler.c **** ******************************************************************************/
 589:Generated_Source\PSoC4/BLE_1_eventHandler.c **** static void CyBle_GattcWriteResponseEventHandler(const CYBLE_CONN_HANDLE_T *eventParam)
 590:Generated_Source\PSoC4/BLE_1_eventHandler.c **** {
 591:Generated_Source\PSoC4/BLE_1_eventHandler.c **** 
 592:Generated_Source\PSoC4/BLE_1_eventHandler.c **** #ifdef CYBLE_AIOS_CLIENT
 593:Generated_Source\PSoC4/BLE_1_eventHandler.c ****     if((cyBle_eventHandlerFlag & CYBLE_CALLBACK) != 0u)
 594:Generated_Source\PSoC4/BLE_1_eventHandler.c ****     {
 595:Generated_Source\PSoC4/BLE_1_eventHandler.c ****         CyBle_AioscWriteResponseEventHandler(eventParam);
 596:Generated_Source\PSoC4/BLE_1_eventHandler.c ****     }
 597:Generated_Source\PSoC4/BLE_1_eventHandler.c **** #endif /* CYBLE_AIOS_CLIENT */
 598:Generated_Source\PSoC4/BLE_1_eventHandler.c **** 
 599:Generated_Source\PSoC4/BLE_1_eventHandler.c **** #ifdef CYBLE_ANCS_CLIENT
 600:Generated_Source\PSoC4/BLE_1_eventHandler.c ****     CyBle_AncscWriteResponseEventHandler(eventParam);
 601:Generated_Source\PSoC4/BLE_1_eventHandler.c **** #endif /* CYBLE_ANCS_CLIENT */
ARM GAS  C:\Users\ADMINI~1\AppData\Local\Temp\ccMaTind.s 			page 12


 602:Generated_Source\PSoC4/BLE_1_eventHandler.c **** 
 603:Generated_Source\PSoC4/BLE_1_eventHandler.c **** #ifdef CYBLE_ANS_CLIENT
 604:Generated_Source\PSoC4/BLE_1_eventHandler.c ****     if((cyBle_eventHandlerFlag & CYBLE_CALLBACK) != 0u)
 605:Generated_Source\PSoC4/BLE_1_eventHandler.c ****     {
 606:Generated_Source\PSoC4/BLE_1_eventHandler.c ****         CyBle_AnscWriteResponseEventHandler(eventParam);
 607:Generated_Source\PSoC4/BLE_1_eventHandler.c ****     }
 608:Generated_Source\PSoC4/BLE_1_eventHandler.c **** #endif /* CYBLE_ANS_CLIENT */
 609:Generated_Source\PSoC4/BLE_1_eventHandler.c **** 
 610:Generated_Source\PSoC4/BLE_1_eventHandler.c **** #ifdef CYBLE_BAS_CLIENT
 611:Generated_Source\PSoC4/BLE_1_eventHandler.c ****     if((cyBle_eventHandlerFlag & CYBLE_CALLBACK) != 0u)
 612:Generated_Source\PSoC4/BLE_1_eventHandler.c ****     {
 613:Generated_Source\PSoC4/BLE_1_eventHandler.c ****         CyBle_BascWriteResponseEventHandler(eventParam);
 614:Generated_Source\PSoC4/BLE_1_eventHandler.c ****     }
 615:Generated_Source\PSoC4/BLE_1_eventHandler.c **** #endif /* CYBLE_BAS_CLIENT */
 616:Generated_Source\PSoC4/BLE_1_eventHandler.c **** 
 617:Generated_Source\PSoC4/BLE_1_eventHandler.c **** #ifdef CYBLE_BCS_CLIENT
 618:Generated_Source\PSoC4/BLE_1_eventHandler.c ****     if((cyBle_eventHandlerFlag & CYBLE_CALLBACK) != 0u)
 619:Generated_Source\PSoC4/BLE_1_eventHandler.c ****     {
 620:Generated_Source\PSoC4/BLE_1_eventHandler.c ****         CyBle_BcscWriteResponseEventHandler(eventParam);
 621:Generated_Source\PSoC4/BLE_1_eventHandler.c ****     }
 622:Generated_Source\PSoC4/BLE_1_eventHandler.c **** #endif /* CYBLE_BCS_CLIENT */
 623:Generated_Source\PSoC4/BLE_1_eventHandler.c **** 
 624:Generated_Source\PSoC4/BLE_1_eventHandler.c **** #ifdef CYBLE_BLS_CLIENT
 625:Generated_Source\PSoC4/BLE_1_eventHandler.c ****     if((cyBle_eventHandlerFlag & CYBLE_CALLBACK) != 0u)
 626:Generated_Source\PSoC4/BLE_1_eventHandler.c ****     {
 627:Generated_Source\PSoC4/BLE_1_eventHandler.c ****         CyBle_BlscWriteResponseEventHandler(eventParam);
 628:Generated_Source\PSoC4/BLE_1_eventHandler.c ****     }
 629:Generated_Source\PSoC4/BLE_1_eventHandler.c **** #endif /* CYBLE_BLS_CLIENT */
 630:Generated_Source\PSoC4/BLE_1_eventHandler.c **** 
 631:Generated_Source\PSoC4/BLE_1_eventHandler.c **** #ifdef CYBLE_BMS_CLIENT
 632:Generated_Source\PSoC4/BLE_1_eventHandler.c ****     if((cyBle_eventHandlerFlag & CYBLE_CALLBACK) != 0u)
 633:Generated_Source\PSoC4/BLE_1_eventHandler.c ****     {
 634:Generated_Source\PSoC4/BLE_1_eventHandler.c ****         CyBle_BmscWriteResponseEventHandler(eventParam);
 635:Generated_Source\PSoC4/BLE_1_eventHandler.c ****     }
 636:Generated_Source\PSoC4/BLE_1_eventHandler.c **** #endif /* CYBLE_BMS_CLIENT */
 637:Generated_Source\PSoC4/BLE_1_eventHandler.c **** 
 638:Generated_Source\PSoC4/BLE_1_eventHandler.c **** #ifdef CYBLE_CGMS_CLIENT
 639:Generated_Source\PSoC4/BLE_1_eventHandler.c ****     if((cyBle_eventHandlerFlag & CYBLE_CALLBACK) != 0u)
 640:Generated_Source\PSoC4/BLE_1_eventHandler.c ****     {
 641:Generated_Source\PSoC4/BLE_1_eventHandler.c ****         CyBle_CgmscWriteResponseEventHandler(eventParam);
 642:Generated_Source\PSoC4/BLE_1_eventHandler.c ****     }
 643:Generated_Source\PSoC4/BLE_1_eventHandler.c **** #endif /* CYBLE_CGMS_CLIENT */
 644:Generated_Source\PSoC4/BLE_1_eventHandler.c **** 
 645:Generated_Source\PSoC4/BLE_1_eventHandler.c **** #ifdef CYBLE_CPS_CLIENT
 646:Generated_Source\PSoC4/BLE_1_eventHandler.c ****     if((cyBle_eventHandlerFlag & CYBLE_CALLBACK) != 0u)
 647:Generated_Source\PSoC4/BLE_1_eventHandler.c ****     {
 648:Generated_Source\PSoC4/BLE_1_eventHandler.c ****         CyBle_CpscWriteResponseEventHandler(eventParam);
 649:Generated_Source\PSoC4/BLE_1_eventHandler.c ****     }
 650:Generated_Source\PSoC4/BLE_1_eventHandler.c **** #endif /* CYBLE_CPS_CLIENT */
 651:Generated_Source\PSoC4/BLE_1_eventHandler.c **** 
 652:Generated_Source\PSoC4/BLE_1_eventHandler.c **** #ifdef CYBLE_CSCS_CLIENT
 653:Generated_Source\PSoC4/BLE_1_eventHandler.c ****     if((cyBle_eventHandlerFlag & CYBLE_CALLBACK) != 0u)
 654:Generated_Source\PSoC4/BLE_1_eventHandler.c ****     {
 655:Generated_Source\PSoC4/BLE_1_eventHandler.c ****         CyBle_CscscWriteResponseEventHandler(eventParam);
 656:Generated_Source\PSoC4/BLE_1_eventHandler.c ****     }
 657:Generated_Source\PSoC4/BLE_1_eventHandler.c **** #endif /* CYBLE_CSCS_CLIENT */
 658:Generated_Source\PSoC4/BLE_1_eventHandler.c **** 
ARM GAS  C:\Users\ADMINI~1\AppData\Local\Temp\ccMaTind.s 			page 13


 659:Generated_Source\PSoC4/BLE_1_eventHandler.c **** #ifdef CYBLE_CTS_CLIENT
 660:Generated_Source\PSoC4/BLE_1_eventHandler.c ****     if((cyBle_eventHandlerFlag & CYBLE_CALLBACK) != 0u)
 661:Generated_Source\PSoC4/BLE_1_eventHandler.c ****     {
 662:Generated_Source\PSoC4/BLE_1_eventHandler.c ****         CyBle_CtscWriteResponseEventHandler(eventParam);
 663:Generated_Source\PSoC4/BLE_1_eventHandler.c ****     }
 664:Generated_Source\PSoC4/BLE_1_eventHandler.c **** #endif /* CYBLE_CTS_CLIENT */
 665:Generated_Source\PSoC4/BLE_1_eventHandler.c **** 
 666:Generated_Source\PSoC4/BLE_1_eventHandler.c **** #ifdef CYBLE_ESS_CLIENT
 667:Generated_Source\PSoC4/BLE_1_eventHandler.c ****     if((cyBle_eventHandlerFlag & CYBLE_CALLBACK) != 0u)
 668:Generated_Source\PSoC4/BLE_1_eventHandler.c ****     {
 669:Generated_Source\PSoC4/BLE_1_eventHandler.c ****         CyBle_EsscWriteResponseEventHandler(eventParam);
 670:Generated_Source\PSoC4/BLE_1_eventHandler.c ****     }
 671:Generated_Source\PSoC4/BLE_1_eventHandler.c **** #endif /* CYBLE_ESS_CLIENT */
 672:Generated_Source\PSoC4/BLE_1_eventHandler.c **** 
 673:Generated_Source\PSoC4/BLE_1_eventHandler.c **** #ifdef CYBLE_GLS_CLIENT
 674:Generated_Source\PSoC4/BLE_1_eventHandler.c ****     if((cyBle_eventHandlerFlag & CYBLE_CALLBACK) != 0u)
 675:Generated_Source\PSoC4/BLE_1_eventHandler.c ****     {
 676:Generated_Source\PSoC4/BLE_1_eventHandler.c ****         CyBle_GlscWriteResponseEventHandler(eventParam);
 677:Generated_Source\PSoC4/BLE_1_eventHandler.c ****     }
 678:Generated_Source\PSoC4/BLE_1_eventHandler.c **** #endif /* CYBLE_GLS_CLIENT */
 679:Generated_Source\PSoC4/BLE_1_eventHandler.c **** 
 680:Generated_Source\PSoC4/BLE_1_eventHandler.c **** #ifdef CYBLE_HIDS_CLIENT
 681:Generated_Source\PSoC4/BLE_1_eventHandler.c ****     if((cyBle_eventHandlerFlag & CYBLE_CALLBACK) != 0u)
 682:Generated_Source\PSoC4/BLE_1_eventHandler.c ****     {
 683:Generated_Source\PSoC4/BLE_1_eventHandler.c ****         CyBle_HidscWriteResponseEventHandler(eventParam);
 684:Generated_Source\PSoC4/BLE_1_eventHandler.c ****     }
 685:Generated_Source\PSoC4/BLE_1_eventHandler.c **** #endif /* CYBLE_HIDS_CLIENT */
 686:Generated_Source\PSoC4/BLE_1_eventHandler.c **** 
 687:Generated_Source\PSoC4/BLE_1_eventHandler.c **** #ifdef CYBLE_HPS_CLIENT
 688:Generated_Source\PSoC4/BLE_1_eventHandler.c ****     if((cyBle_eventHandlerFlag & CYBLE_CALLBACK) != 0u)
 689:Generated_Source\PSoC4/BLE_1_eventHandler.c ****     {
 690:Generated_Source\PSoC4/BLE_1_eventHandler.c ****         CyBle_HpscWriteResponseEventHandler(eventParam);
 691:Generated_Source\PSoC4/BLE_1_eventHandler.c ****     }
 692:Generated_Source\PSoC4/BLE_1_eventHandler.c **** #endif /* CYBLE_HPS_CLIENT */
 693:Generated_Source\PSoC4/BLE_1_eventHandler.c **** 
 694:Generated_Source\PSoC4/BLE_1_eventHandler.c **** #ifdef CYBLE_HRS_CLIENT
 695:Generated_Source\PSoC4/BLE_1_eventHandler.c ****     if((cyBle_eventHandlerFlag & CYBLE_CALLBACK) != 0u)
 696:Generated_Source\PSoC4/BLE_1_eventHandler.c ****     {
 697:Generated_Source\PSoC4/BLE_1_eventHandler.c ****         CyBle_HrscWriteResponseEventHandler(eventParam);
 698:Generated_Source\PSoC4/BLE_1_eventHandler.c ****     }
 699:Generated_Source\PSoC4/BLE_1_eventHandler.c **** #endif /* CYBLE_HRS_CLIENT */
 700:Generated_Source\PSoC4/BLE_1_eventHandler.c **** 
 701:Generated_Source\PSoC4/BLE_1_eventHandler.c **** #ifdef CYBLE_HTS_CLIENT
 702:Generated_Source\PSoC4/BLE_1_eventHandler.c ****     if((cyBle_eventHandlerFlag & CYBLE_CALLBACK) != 0u)
 703:Generated_Source\PSoC4/BLE_1_eventHandler.c ****     {
 704:Generated_Source\PSoC4/BLE_1_eventHandler.c ****         CyBle_HtscWriteResponseEventHandler(eventParam);
 705:Generated_Source\PSoC4/BLE_1_eventHandler.c ****     }
 706:Generated_Source\PSoC4/BLE_1_eventHandler.c **** #endif /* CYBLE_HTS_CLIENT */
 707:Generated_Source\PSoC4/BLE_1_eventHandler.c **** 
 708:Generated_Source\PSoC4/BLE_1_eventHandler.c **** #ifdef CYBLE_IPS_CLIENT
 709:Generated_Source\PSoC4/BLE_1_eventHandler.c ****     if((cyBle_eventHandlerFlag & CYBLE_CALLBACK) != 0u)
 710:Generated_Source\PSoC4/BLE_1_eventHandler.c ****     {
 711:Generated_Source\PSoC4/BLE_1_eventHandler.c ****         CyBle_IpscWriteResponseEventHandler(eventParam);
 712:Generated_Source\PSoC4/BLE_1_eventHandler.c ****     }
 713:Generated_Source\PSoC4/BLE_1_eventHandler.c **** #endif /* CYBLE_IPS_CLIENT */
 714:Generated_Source\PSoC4/BLE_1_eventHandler.c **** 
 715:Generated_Source\PSoC4/BLE_1_eventHandler.c **** #ifdef CYBLE_LLS_CLIENT
ARM GAS  C:\Users\ADMINI~1\AppData\Local\Temp\ccMaTind.s 			page 14


 716:Generated_Source\PSoC4/BLE_1_eventHandler.c ****     if((cyBle_eventHandlerFlag & CYBLE_CALLBACK) != 0u)
 717:Generated_Source\PSoC4/BLE_1_eventHandler.c ****     {
 718:Generated_Source\PSoC4/BLE_1_eventHandler.c ****         CyBle_LlscWriteResponseEventHandler(eventParam);
 719:Generated_Source\PSoC4/BLE_1_eventHandler.c ****     }
 720:Generated_Source\PSoC4/BLE_1_eventHandler.c **** #endif /* CYBLE_LLS_CLIENT */
 721:Generated_Source\PSoC4/BLE_1_eventHandler.c **** 
 722:Generated_Source\PSoC4/BLE_1_eventHandler.c **** #ifdef CYBLE_LNS_CLIENT
 723:Generated_Source\PSoC4/BLE_1_eventHandler.c ****     if((cyBle_eventHandlerFlag & CYBLE_CALLBACK) != 0u)
 724:Generated_Source\PSoC4/BLE_1_eventHandler.c ****     {
 725:Generated_Source\PSoC4/BLE_1_eventHandler.c ****         CyBle_LnscWriteResponseEventHandler(eventParam);
 726:Generated_Source\PSoC4/BLE_1_eventHandler.c ****     }
 727:Generated_Source\PSoC4/BLE_1_eventHandler.c **** #endif /* CYBLE_LNS_CLIENT */
 728:Generated_Source\PSoC4/BLE_1_eventHandler.c **** 
 729:Generated_Source\PSoC4/BLE_1_eventHandler.c **** #ifdef CYBLE_PASS_CLIENT
 730:Generated_Source\PSoC4/BLE_1_eventHandler.c ****     if((cyBle_eventHandlerFlag & CYBLE_CALLBACK) != 0u)
 731:Generated_Source\PSoC4/BLE_1_eventHandler.c ****     {
 732:Generated_Source\PSoC4/BLE_1_eventHandler.c ****         CyBle_PasscWriteResponseEventHandler(eventParam);
 733:Generated_Source\PSoC4/BLE_1_eventHandler.c ****     }
 734:Generated_Source\PSoC4/BLE_1_eventHandler.c **** #endif /* CYBLE_PASS_CLIENT */
 735:Generated_Source\PSoC4/BLE_1_eventHandler.c **** 
 736:Generated_Source\PSoC4/BLE_1_eventHandler.c **** #ifdef CYBLE_PLXS_CLIENT
 737:Generated_Source\PSoC4/BLE_1_eventHandler.c ****     if((cyBle_eventHandlerFlag & CYBLE_CALLBACK) != 0u)
 738:Generated_Source\PSoC4/BLE_1_eventHandler.c ****     {
 739:Generated_Source\PSoC4/BLE_1_eventHandler.c ****         CyBle_PlxscWriteResponseEventHandler(eventParam);
 740:Generated_Source\PSoC4/BLE_1_eventHandler.c ****     }
 741:Generated_Source\PSoC4/BLE_1_eventHandler.c **** #endif /* CYBLE_PASS_CLIENT */
 742:Generated_Source\PSoC4/BLE_1_eventHandler.c **** 
 743:Generated_Source\PSoC4/BLE_1_eventHandler.c **** #ifdef CYBLE_RSCS_CLIENT
 744:Generated_Source\PSoC4/BLE_1_eventHandler.c ****     if((cyBle_eventHandlerFlag & CYBLE_CALLBACK) != 0u)
 745:Generated_Source\PSoC4/BLE_1_eventHandler.c ****     {
 746:Generated_Source\PSoC4/BLE_1_eventHandler.c ****         CyBle_RscscWriteResponseEventHandler(eventParam);
 747:Generated_Source\PSoC4/BLE_1_eventHandler.c ****     }
 748:Generated_Source\PSoC4/BLE_1_eventHandler.c **** #endif /* CYBLE_RSCS_CLIENT */
 749:Generated_Source\PSoC4/BLE_1_eventHandler.c **** 
 750:Generated_Source\PSoC4/BLE_1_eventHandler.c **** #ifdef CYBLE_SCPS_CLIENT
 751:Generated_Source\PSoC4/BLE_1_eventHandler.c ****     if((cyBle_eventHandlerFlag & CYBLE_CALLBACK) != 0u)
 752:Generated_Source\PSoC4/BLE_1_eventHandler.c ****     {
 753:Generated_Source\PSoC4/BLE_1_eventHandler.c ****         CyBle_ScpscWriteResponseEventHandler(eventParam);
 754:Generated_Source\PSoC4/BLE_1_eventHandler.c ****     }
 755:Generated_Source\PSoC4/BLE_1_eventHandler.c **** #endif /* CYBLE_SCPS_CLIENT */
 756:Generated_Source\PSoC4/BLE_1_eventHandler.c **** 
 757:Generated_Source\PSoC4/BLE_1_eventHandler.c **** #ifdef CYBLE_TPS_CLIENT
 758:Generated_Source\PSoC4/BLE_1_eventHandler.c ****     if((cyBle_eventHandlerFlag & CYBLE_CALLBACK) != 0u)
 759:Generated_Source\PSoC4/BLE_1_eventHandler.c ****     {
 760:Generated_Source\PSoC4/BLE_1_eventHandler.c ****         CyBle_TpscWriteResponseEventHandler(eventParam);
 761:Generated_Source\PSoC4/BLE_1_eventHandler.c ****     }
 762:Generated_Source\PSoC4/BLE_1_eventHandler.c **** #endif /* CYBLE_TPS_CLIENT */
 763:Generated_Source\PSoC4/BLE_1_eventHandler.c **** 
 764:Generated_Source\PSoC4/BLE_1_eventHandler.c **** #ifdef CYBLE_UDS_CLIENT
 765:Generated_Source\PSoC4/BLE_1_eventHandler.c ****     if((cyBle_eventHandlerFlag & CYBLE_CALLBACK) != 0u)
 766:Generated_Source\PSoC4/BLE_1_eventHandler.c ****     {
 767:Generated_Source\PSoC4/BLE_1_eventHandler.c ****         CyBle_UdscWriteResponseEventHandler(eventParam);
 768:Generated_Source\PSoC4/BLE_1_eventHandler.c ****     }
 769:Generated_Source\PSoC4/BLE_1_eventHandler.c **** #endif /* CYBLE_UDS_CLIENT */
 770:Generated_Source\PSoC4/BLE_1_eventHandler.c **** #ifdef CYBLE_WPTS_CLIENT
 771:Generated_Source\PSoC4/BLE_1_eventHandler.c ****     if((cyBle_eventHandlerFlag & CYBLE_CALLBACK) != 0u)
 772:Generated_Source\PSoC4/BLE_1_eventHandler.c ****     {
ARM GAS  C:\Users\ADMINI~1\AppData\Local\Temp\ccMaTind.s 			page 15


 773:Generated_Source\PSoC4/BLE_1_eventHandler.c ****         CyBle_WptscWriteResponseEventHandler(eventParam);
 774:Generated_Source\PSoC4/BLE_1_eventHandler.c ****     }
 775:Generated_Source\PSoC4/BLE_1_eventHandler.c **** #endif /* CYBLE_WPTS_CLIENT */
 776:Generated_Source\PSoC4/BLE_1_eventHandler.c **** #ifdef CYBLE_WSS_CLIENT
 777:Generated_Source\PSoC4/BLE_1_eventHandler.c ****     if((cyBle_eventHandlerFlag & CYBLE_CALLBACK) != 0u)
 778:Generated_Source\PSoC4/BLE_1_eventHandler.c ****     {
 779:Generated_Source\PSoC4/BLE_1_eventHandler.c ****         CyBle_WsscWriteResponseEventHandler(eventParam);
 780:Generated_Source\PSoC4/BLE_1_eventHandler.c ****     }
 781:Generated_Source\PSoC4/BLE_1_eventHandler.c **** #endif /* CYBLE_WSS_CLIENT */
 782:Generated_Source\PSoC4/BLE_1_eventHandler.c **** }
 783:Generated_Source\PSoC4/BLE_1_eventHandler.c **** 
 784:Generated_Source\PSoC4/BLE_1_eventHandler.c **** 
 785:Generated_Source\PSoC4/BLE_1_eventHandler.c **** /******************************************************************************    
 786:Generated_Source\PSoC4/BLE_1_eventHandler.c **** * Function Name: CyBle_NotificationEventHandler
 787:Generated_Source\PSoC4/BLE_1_eventHandler.c **** ***************************************************************************//**
 788:Generated_Source\PSoC4/BLE_1_eventHandler.c **** * 
 789:Generated_Source\PSoC4/BLE_1_eventHandler.c **** *  Handles the Notification event from BLE stack.
 790:Generated_Source\PSoC4/BLE_1_eventHandler.c **** * 
 791:Generated_Source\PSoC4/BLE_1_eventHandler.c **** *  \param eventParam: event parameter
 792:Generated_Source\PSoC4/BLE_1_eventHandler.c **** * 
 793:Generated_Source\PSoC4/BLE_1_eventHandler.c **** * \return
 794:Generated_Source\PSoC4/BLE_1_eventHandler.c **** *  None
 795:Generated_Source\PSoC4/BLE_1_eventHandler.c **** * 
 796:Generated_Source\PSoC4/BLE_1_eventHandler.c **** ******************************************************************************/
 797:Generated_Source\PSoC4/BLE_1_eventHandler.c **** static void CyBle_NotificationEventHandler(CYBLE_GATTC_HANDLE_VALUE_NTF_PARAM_T *eventParam)
 798:Generated_Source\PSoC4/BLE_1_eventHandler.c **** {
 799:Generated_Source\PSoC4/BLE_1_eventHandler.c **** #ifdef CYBLE_AIOS_CLIENT
 800:Generated_Source\PSoC4/BLE_1_eventHandler.c ****     if((cyBle_eventHandlerFlag & CYBLE_CALLBACK) != 0u)
 801:Generated_Source\PSoC4/BLE_1_eventHandler.c ****     {
 802:Generated_Source\PSoC4/BLE_1_eventHandler.c ****         CyBle_AioscNotificationEventHandler(eventParam);
 803:Generated_Source\PSoC4/BLE_1_eventHandler.c ****     }
 804:Generated_Source\PSoC4/BLE_1_eventHandler.c **** #endif /* CYBLE_AIOS_CLIENT */
 805:Generated_Source\PSoC4/BLE_1_eventHandler.c **** #ifdef CYBLE_ANCS_CLIENT
 806:Generated_Source\PSoC4/BLE_1_eventHandler.c ****     CyBle_AncscNotificationEventHandler(eventParam);
 807:Generated_Source\PSoC4/BLE_1_eventHandler.c **** #endif /* CYBLE_ANCS_CLIENT */
 808:Generated_Source\PSoC4/BLE_1_eventHandler.c **** #ifdef CYBLE_ANS_CLIENT
 809:Generated_Source\PSoC4/BLE_1_eventHandler.c ****     if((cyBle_eventHandlerFlag & CYBLE_CALLBACK) != 0u)
 810:Generated_Source\PSoC4/BLE_1_eventHandler.c ****     {
 811:Generated_Source\PSoC4/BLE_1_eventHandler.c ****         CyBle_AnscNotificationEventHandler(eventParam);
 812:Generated_Source\PSoC4/BLE_1_eventHandler.c ****     }
 813:Generated_Source\PSoC4/BLE_1_eventHandler.c **** #endif /* CYBLE_ANS_CLIENT */
 814:Generated_Source\PSoC4/BLE_1_eventHandler.c **** #ifdef CYBLE_BAS_CLIENT
 815:Generated_Source\PSoC4/BLE_1_eventHandler.c ****     if((cyBle_eventHandlerFlag & CYBLE_CALLBACK) != 0u)
 816:Generated_Source\PSoC4/BLE_1_eventHandler.c ****     {
 817:Generated_Source\PSoC4/BLE_1_eventHandler.c ****         CyBle_BascNotificationEventHandler(eventParam);
 818:Generated_Source\PSoC4/BLE_1_eventHandler.c ****     }
 819:Generated_Source\PSoC4/BLE_1_eventHandler.c **** #endif /* CYBLE_BAS_CLIENT */
 820:Generated_Source\PSoC4/BLE_1_eventHandler.c **** #ifdef CYBLE_BLS_CLIENT
 821:Generated_Source\PSoC4/BLE_1_eventHandler.c ****     if((cyBle_eventHandlerFlag & CYBLE_CALLBACK) != 0u)
 822:Generated_Source\PSoC4/BLE_1_eventHandler.c ****     {
 823:Generated_Source\PSoC4/BLE_1_eventHandler.c ****         CyBle_BlscNotificationEventHandler(eventParam);
 824:Generated_Source\PSoC4/BLE_1_eventHandler.c ****     }
 825:Generated_Source\PSoC4/BLE_1_eventHandler.c **** #endif /* CYBLE_BLS_CLIENT */
 826:Generated_Source\PSoC4/BLE_1_eventHandler.c **** #ifdef CYBLE_CGMS_CLIENT
 827:Generated_Source\PSoC4/BLE_1_eventHandler.c ****     if((cyBle_eventHandlerFlag & CYBLE_CALLBACK) != 0u)
 828:Generated_Source\PSoC4/BLE_1_eventHandler.c ****     {
 829:Generated_Source\PSoC4/BLE_1_eventHandler.c ****         CyBle_CgmscNotificationEventHandler(eventParam);
ARM GAS  C:\Users\ADMINI~1\AppData\Local\Temp\ccMaTind.s 			page 16


 830:Generated_Source\PSoC4/BLE_1_eventHandler.c ****     }
 831:Generated_Source\PSoC4/BLE_1_eventHandler.c **** #endif /* CYBLE_CGMS_CLIENT */
 832:Generated_Source\PSoC4/BLE_1_eventHandler.c **** #ifdef CYBLE_CPS_CLIENT
 833:Generated_Source\PSoC4/BLE_1_eventHandler.c ****     if((cyBle_eventHandlerFlag & CYBLE_CALLBACK) != 0u)
 834:Generated_Source\PSoC4/BLE_1_eventHandler.c ****     {
 835:Generated_Source\PSoC4/BLE_1_eventHandler.c ****         CyBle_CpscNotificationEventHandler(eventParam);
 836:Generated_Source\PSoC4/BLE_1_eventHandler.c ****     }
 837:Generated_Source\PSoC4/BLE_1_eventHandler.c **** #endif /* CYBLE_CPS_CLIENT */
 838:Generated_Source\PSoC4/BLE_1_eventHandler.c **** #ifdef CYBLE_CSCS_CLIENT
 839:Generated_Source\PSoC4/BLE_1_eventHandler.c ****     if((cyBle_eventHandlerFlag & CYBLE_CALLBACK) != 0u)
 840:Generated_Source\PSoC4/BLE_1_eventHandler.c ****     {
 841:Generated_Source\PSoC4/BLE_1_eventHandler.c ****         CyBle_CscscNotificationEventHandler(eventParam);
 842:Generated_Source\PSoC4/BLE_1_eventHandler.c ****     }
 843:Generated_Source\PSoC4/BLE_1_eventHandler.c **** #endif /* CYBLE_CSCS_CLIENT */
 844:Generated_Source\PSoC4/BLE_1_eventHandler.c **** #ifdef CYBLE_CTS_CLIENT
 845:Generated_Source\PSoC4/BLE_1_eventHandler.c ****     if((cyBle_eventHandlerFlag & CYBLE_CALLBACK) != 0u)
 846:Generated_Source\PSoC4/BLE_1_eventHandler.c ****     {
 847:Generated_Source\PSoC4/BLE_1_eventHandler.c ****         CyBle_CtscNotificationEventHandler(eventParam);
 848:Generated_Source\PSoC4/BLE_1_eventHandler.c ****     }
 849:Generated_Source\PSoC4/BLE_1_eventHandler.c **** #endif /* CYBLE_CTS_CLIENT */
 850:Generated_Source\PSoC4/BLE_1_eventHandler.c **** #ifdef CYBLE_ESS_CLIENT
 851:Generated_Source\PSoC4/BLE_1_eventHandler.c ****     if((cyBle_eventHandlerFlag & CYBLE_CALLBACK) != 0u)
 852:Generated_Source\PSoC4/BLE_1_eventHandler.c ****     {
 853:Generated_Source\PSoC4/BLE_1_eventHandler.c ****         CyBle_EsscNotificationEventHandler(eventParam);
 854:Generated_Source\PSoC4/BLE_1_eventHandler.c ****     }
 855:Generated_Source\PSoC4/BLE_1_eventHandler.c **** #endif /* CYBLE_ESS_CLIENT */
 856:Generated_Source\PSoC4/BLE_1_eventHandler.c **** #ifdef CYBLE_GLS_CLIENT
 857:Generated_Source\PSoC4/BLE_1_eventHandler.c ****     if((cyBle_eventHandlerFlag & CYBLE_CALLBACK) != 0u)
 858:Generated_Source\PSoC4/BLE_1_eventHandler.c ****     {
 859:Generated_Source\PSoC4/BLE_1_eventHandler.c ****         CyBle_GlscNotificationEventHandler(eventParam);
 860:Generated_Source\PSoC4/BLE_1_eventHandler.c ****     }
 861:Generated_Source\PSoC4/BLE_1_eventHandler.c **** #endif /* CYBLE_GLS_CLIENT */
 862:Generated_Source\PSoC4/BLE_1_eventHandler.c **** #ifdef CYBLE_HIDS_CLIENT
 863:Generated_Source\PSoC4/BLE_1_eventHandler.c ****     if((cyBle_eventHandlerFlag & CYBLE_CALLBACK) != 0u)
 864:Generated_Source\PSoC4/BLE_1_eventHandler.c ****     {
 865:Generated_Source\PSoC4/BLE_1_eventHandler.c ****         CyBle_HidscNotificationEventHandler(eventParam);
 866:Generated_Source\PSoC4/BLE_1_eventHandler.c ****     }
 867:Generated_Source\PSoC4/BLE_1_eventHandler.c **** #endif /* CYBLE_HIDS_CLIENT */
 868:Generated_Source\PSoC4/BLE_1_eventHandler.c **** #ifdef CYBLE_HPS_CLIENT
 869:Generated_Source\PSoC4/BLE_1_eventHandler.c ****     if((cyBle_eventHandlerFlag & CYBLE_CALLBACK) != 0u)
 870:Generated_Source\PSoC4/BLE_1_eventHandler.c ****     {
 871:Generated_Source\PSoC4/BLE_1_eventHandler.c ****         CyBle_HpscNotificationEventHandler(eventParam);
 872:Generated_Source\PSoC4/BLE_1_eventHandler.c ****     }
 873:Generated_Source\PSoC4/BLE_1_eventHandler.c **** #endif /* CYBLE_HPS_CLIENT */
 874:Generated_Source\PSoC4/BLE_1_eventHandler.c **** #ifdef CYBLE_HRS_CLIENT
 875:Generated_Source\PSoC4/BLE_1_eventHandler.c ****     if((cyBle_eventHandlerFlag & CYBLE_CALLBACK) != 0u)
 876:Generated_Source\PSoC4/BLE_1_eventHandler.c ****     {
 877:Generated_Source\PSoC4/BLE_1_eventHandler.c ****         CyBle_HrscNotificationEventHandler(eventParam);
 878:Generated_Source\PSoC4/BLE_1_eventHandler.c ****     }
 879:Generated_Source\PSoC4/BLE_1_eventHandler.c **** #endif /* CYBLE_HRS_CLIENT */
 880:Generated_Source\PSoC4/BLE_1_eventHandler.c **** #ifdef CYBLE_HTS_CLIENT
 881:Generated_Source\PSoC4/BLE_1_eventHandler.c ****     if((cyBle_eventHandlerFlag & CYBLE_CALLBACK) != 0u)
 882:Generated_Source\PSoC4/BLE_1_eventHandler.c ****     {
 883:Generated_Source\PSoC4/BLE_1_eventHandler.c ****         CyBle_HtscNotificationEventHandler(eventParam);
 884:Generated_Source\PSoC4/BLE_1_eventHandler.c ****     }
 885:Generated_Source\PSoC4/BLE_1_eventHandler.c **** #endif /* CYBLE_HTS_CLIENT */
 886:Generated_Source\PSoC4/BLE_1_eventHandler.c **** #ifdef CYBLE_LNS_CLIENT
ARM GAS  C:\Users\ADMINI~1\AppData\Local\Temp\ccMaTind.s 			page 17


 887:Generated_Source\PSoC4/BLE_1_eventHandler.c ****     if((cyBle_eventHandlerFlag & CYBLE_CALLBACK) != 0u)
 888:Generated_Source\PSoC4/BLE_1_eventHandler.c ****     {
 889:Generated_Source\PSoC4/BLE_1_eventHandler.c ****         CyBle_LnscNotificationEventHandler(eventParam);
 890:Generated_Source\PSoC4/BLE_1_eventHandler.c ****     }
 891:Generated_Source\PSoC4/BLE_1_eventHandler.c **** #endif /* CYBLE_LNS_CLIENT */
 892:Generated_Source\PSoC4/BLE_1_eventHandler.c **** #ifdef CYBLE_PASS_CLIENT
 893:Generated_Source\PSoC4/BLE_1_eventHandler.c ****     if((cyBle_eventHandlerFlag & CYBLE_CALLBACK) != 0u)
 894:Generated_Source\PSoC4/BLE_1_eventHandler.c ****     {
 895:Generated_Source\PSoC4/BLE_1_eventHandler.c ****         CyBle_PasscNotificationEventHandler(eventParam);
 896:Generated_Source\PSoC4/BLE_1_eventHandler.c ****     }
 897:Generated_Source\PSoC4/BLE_1_eventHandler.c **** #endif /* CYBLE_PASS_CLIENT */
 898:Generated_Source\PSoC4/BLE_1_eventHandler.c **** #ifdef CYBLE_PLXS_CLIENT
 899:Generated_Source\PSoC4/BLE_1_eventHandler.c ****     if((cyBle_eventHandlerFlag & CYBLE_CALLBACK) != 0u)
 900:Generated_Source\PSoC4/BLE_1_eventHandler.c ****     {
 901:Generated_Source\PSoC4/BLE_1_eventHandler.c ****         CyBle_PlxscNotificationEventHandler(eventParam);
 902:Generated_Source\PSoC4/BLE_1_eventHandler.c ****     }
 903:Generated_Source\PSoC4/BLE_1_eventHandler.c **** #endif /* CYBLE_PLXS_CLIENT */
 904:Generated_Source\PSoC4/BLE_1_eventHandler.c **** #ifdef CYBLE_RSCS_CLIENT
 905:Generated_Source\PSoC4/BLE_1_eventHandler.c ****     if((cyBle_eventHandlerFlag & CYBLE_CALLBACK) != 0u)
 906:Generated_Source\PSoC4/BLE_1_eventHandler.c ****     {
 907:Generated_Source\PSoC4/BLE_1_eventHandler.c ****         CyBle_RscscNotificationEventHandler(eventParam);
 908:Generated_Source\PSoC4/BLE_1_eventHandler.c ****     }
 909:Generated_Source\PSoC4/BLE_1_eventHandler.c **** #endif /* CYBLE_RSCS_CLIENT */
 910:Generated_Source\PSoC4/BLE_1_eventHandler.c **** #ifdef CYBLE_SCPS_CLIENT
 911:Generated_Source\PSoC4/BLE_1_eventHandler.c ****     if((cyBle_eventHandlerFlag & CYBLE_CALLBACK) != 0u)
 912:Generated_Source\PSoC4/BLE_1_eventHandler.c ****     {
 913:Generated_Source\PSoC4/BLE_1_eventHandler.c ****         CyBle_ScpscNotificationEventHandler(eventParam);
 914:Generated_Source\PSoC4/BLE_1_eventHandler.c ****     }
 915:Generated_Source\PSoC4/BLE_1_eventHandler.c **** #endif /* CYBLE_SCPS_CLIENT */
 916:Generated_Source\PSoC4/BLE_1_eventHandler.c **** #ifdef CYBLE_TPS_CLIENT
 917:Generated_Source\PSoC4/BLE_1_eventHandler.c ****     if((cyBle_eventHandlerFlag & CYBLE_CALLBACK) != 0u)
 918:Generated_Source\PSoC4/BLE_1_eventHandler.c ****     {
 919:Generated_Source\PSoC4/BLE_1_eventHandler.c ****         CyBle_TpscNotificationEventHandler(eventParam);
 920:Generated_Source\PSoC4/BLE_1_eventHandler.c ****     }
 921:Generated_Source\PSoC4/BLE_1_eventHandler.c **** #endif /* CYBLE_TPS_CLIENT */
 922:Generated_Source\PSoC4/BLE_1_eventHandler.c **** #ifdef CYBLE_UDS_CLIENT
 923:Generated_Source\PSoC4/BLE_1_eventHandler.c ****     if((cyBle_eventHandlerFlag & CYBLE_CALLBACK) != 0u)
 924:Generated_Source\PSoC4/BLE_1_eventHandler.c ****     {
 925:Generated_Source\PSoC4/BLE_1_eventHandler.c ****         CyBle_UdscNotificationEventHandler(eventParam);
 926:Generated_Source\PSoC4/BLE_1_eventHandler.c ****     }
 927:Generated_Source\PSoC4/BLE_1_eventHandler.c **** #endif /* CYBLE_UDS_CLIENT */
 928:Generated_Source\PSoC4/BLE_1_eventHandler.c **** #ifdef CYBLE_WPTS_CLIENT
 929:Generated_Source\PSoC4/BLE_1_eventHandler.c ****     if((cyBle_eventHandlerFlag & CYBLE_CALLBACK) != 0u)
 930:Generated_Source\PSoC4/BLE_1_eventHandler.c ****     {
 931:Generated_Source\PSoC4/BLE_1_eventHandler.c ****         CyBle_WptscNotificationEventHandler(eventParam);
 932:Generated_Source\PSoC4/BLE_1_eventHandler.c ****     }
 933:Generated_Source\PSoC4/BLE_1_eventHandler.c **** #endif /* CYBLE_WPTS_CLIENT */
 934:Generated_Source\PSoC4/BLE_1_eventHandler.c **** }
 935:Generated_Source\PSoC4/BLE_1_eventHandler.c **** 
 936:Generated_Source\PSoC4/BLE_1_eventHandler.c **** 
 937:Generated_Source\PSoC4/BLE_1_eventHandler.c **** /******************************************************************************    
 938:Generated_Source\PSoC4/BLE_1_eventHandler.c **** * Function Name: CyBle_IndicationEventHandler
 939:Generated_Source\PSoC4/BLE_1_eventHandler.c **** ***************************************************************************//**
 940:Generated_Source\PSoC4/BLE_1_eventHandler.c **** * 
 941:Generated_Source\PSoC4/BLE_1_eventHandler.c **** *  Handles the Indication event from BLE stack.
 942:Generated_Source\PSoC4/BLE_1_eventHandler.c **** * 
 943:Generated_Source\PSoC4/BLE_1_eventHandler.c **** *  \param eventParam: event parameter
ARM GAS  C:\Users\ADMINI~1\AppData\Local\Temp\ccMaTind.s 			page 18


 944:Generated_Source\PSoC4/BLE_1_eventHandler.c **** * 
 945:Generated_Source\PSoC4/BLE_1_eventHandler.c **** * \return
 946:Generated_Source\PSoC4/BLE_1_eventHandler.c **** *  None
 947:Generated_Source\PSoC4/BLE_1_eventHandler.c **** * 
 948:Generated_Source\PSoC4/BLE_1_eventHandler.c **** ******************************************************************************/
 949:Generated_Source\PSoC4/BLE_1_eventHandler.c **** static void CyBle_IndicationEventHandler(CYBLE_GATTC_HANDLE_VALUE_IND_PARAM_T *eventParam)
 950:Generated_Source\PSoC4/BLE_1_eventHandler.c **** {
 951:Generated_Source\PSoC4/BLE_1_eventHandler.c **** #ifdef CYBLE_AIOS_CLIENT
 952:Generated_Source\PSoC4/BLE_1_eventHandler.c ****     if((cyBle_eventHandlerFlag & CYBLE_CALLBACK) != 0u)
 953:Generated_Source\PSoC4/BLE_1_eventHandler.c ****     {
 954:Generated_Source\PSoC4/BLE_1_eventHandler.c ****         CyBle_AioscIndicationEventHandler(eventParam);
 955:Generated_Source\PSoC4/BLE_1_eventHandler.c ****     }
 956:Generated_Source\PSoC4/BLE_1_eventHandler.c **** #endif /* CYBLE_AIOS_CLIENT */
 957:Generated_Source\PSoC4/BLE_1_eventHandler.c **** #ifdef CYBLE_BCS_CLIENT
 958:Generated_Source\PSoC4/BLE_1_eventHandler.c ****     if((cyBle_eventHandlerFlag & CYBLE_CALLBACK) != 0u)
 959:Generated_Source\PSoC4/BLE_1_eventHandler.c ****     {
 960:Generated_Source\PSoC4/BLE_1_eventHandler.c ****         CyBle_BcscIndicationEventHandler(eventParam);
 961:Generated_Source\PSoC4/BLE_1_eventHandler.c ****     }
 962:Generated_Source\PSoC4/BLE_1_eventHandler.c **** #endif /* CYBLE_BCS_CLIENT */
 963:Generated_Source\PSoC4/BLE_1_eventHandler.c **** #ifdef CYBLE_BLS_CLIENT
 964:Generated_Source\PSoC4/BLE_1_eventHandler.c ****     if((cyBle_eventHandlerFlag & CYBLE_CALLBACK) != 0u)
 965:Generated_Source\PSoC4/BLE_1_eventHandler.c ****     {
 966:Generated_Source\PSoC4/BLE_1_eventHandler.c ****         CyBle_BlscIndicationEventHandler(eventParam);
 967:Generated_Source\PSoC4/BLE_1_eventHandler.c ****     }
 968:Generated_Source\PSoC4/BLE_1_eventHandler.c **** #endif /* CYBLE_BLS_CLIENT */
 969:Generated_Source\PSoC4/BLE_1_eventHandler.c **** #ifdef CYBLE_CGMS_CLIENT
 970:Generated_Source\PSoC4/BLE_1_eventHandler.c ****     if((cyBle_eventHandlerFlag & CYBLE_CALLBACK) != 0u)
 971:Generated_Source\PSoC4/BLE_1_eventHandler.c ****     {
 972:Generated_Source\PSoC4/BLE_1_eventHandler.c ****         CyBle_CgmscIndicationEventHandler(eventParam);
 973:Generated_Source\PSoC4/BLE_1_eventHandler.c ****     }
 974:Generated_Source\PSoC4/BLE_1_eventHandler.c **** #endif /* CYBLE_CGMS_CLIENT */
 975:Generated_Source\PSoC4/BLE_1_eventHandler.c **** #ifdef CYBLE_CPS_CLIENT
 976:Generated_Source\PSoC4/BLE_1_eventHandler.c ****     if((cyBle_eventHandlerFlag & CYBLE_CALLBACK) != 0u)
 977:Generated_Source\PSoC4/BLE_1_eventHandler.c ****     {
 978:Generated_Source\PSoC4/BLE_1_eventHandler.c ****         CyBle_CpscIndicationEventHandler(eventParam);
 979:Generated_Source\PSoC4/BLE_1_eventHandler.c ****     }
 980:Generated_Source\PSoC4/BLE_1_eventHandler.c **** #endif /* CYBLE_CPS_CLIENT */
 981:Generated_Source\PSoC4/BLE_1_eventHandler.c **** #ifdef CYBLE_CSCS_CLIENT
 982:Generated_Source\PSoC4/BLE_1_eventHandler.c ****     if((cyBle_eventHandlerFlag & CYBLE_CALLBACK) != 0u)
 983:Generated_Source\PSoC4/BLE_1_eventHandler.c ****     {
 984:Generated_Source\PSoC4/BLE_1_eventHandler.c ****         CyBle_CscscIndicationEventHandler(eventParam);
 985:Generated_Source\PSoC4/BLE_1_eventHandler.c ****     }
 986:Generated_Source\PSoC4/BLE_1_eventHandler.c **** #endif /* CYBLE_CSCS_CLIENT */
 987:Generated_Source\PSoC4/BLE_1_eventHandler.c **** #ifdef CYBLE_ESS_CLIENT
 988:Generated_Source\PSoC4/BLE_1_eventHandler.c ****     if((cyBle_eventHandlerFlag & CYBLE_CALLBACK) != 0u)
 989:Generated_Source\PSoC4/BLE_1_eventHandler.c ****     {
 990:Generated_Source\PSoC4/BLE_1_eventHandler.c ****         CyBle_EsscIndicationEventHandler(eventParam);
 991:Generated_Source\PSoC4/BLE_1_eventHandler.c ****     }
 992:Generated_Source\PSoC4/BLE_1_eventHandler.c **** #endif /* CYBLE_ESS_CLIENT */
 993:Generated_Source\PSoC4/BLE_1_eventHandler.c **** #ifdef CYBLE_GLS_CLIENT
 994:Generated_Source\PSoC4/BLE_1_eventHandler.c ****     if((cyBle_eventHandlerFlag & CYBLE_CALLBACK) != 0u)
 995:Generated_Source\PSoC4/BLE_1_eventHandler.c ****     {
 996:Generated_Source\PSoC4/BLE_1_eventHandler.c ****         CyBle_GlscIndicationEventHandler(eventParam);
 997:Generated_Source\PSoC4/BLE_1_eventHandler.c ****     }
 998:Generated_Source\PSoC4/BLE_1_eventHandler.c **** #endif /* CYBLE_GLS_CLIENT */
 999:Generated_Source\PSoC4/BLE_1_eventHandler.c **** #ifdef CYBLE_HTS_CLIENT
1000:Generated_Source\PSoC4/BLE_1_eventHandler.c ****     if((cyBle_eventHandlerFlag & CYBLE_CALLBACK) != 0u)
ARM GAS  C:\Users\ADMINI~1\AppData\Local\Temp\ccMaTind.s 			page 19


1001:Generated_Source\PSoC4/BLE_1_eventHandler.c ****     {
1002:Generated_Source\PSoC4/BLE_1_eventHandler.c ****         CyBle_HtscIndicationEventHandler(eventParam);
1003:Generated_Source\PSoC4/BLE_1_eventHandler.c ****     }
1004:Generated_Source\PSoC4/BLE_1_eventHandler.c **** #endif /* CYBLE_HTS_CLIENT */
1005:Generated_Source\PSoC4/BLE_1_eventHandler.c **** #ifdef CYBLE_LNS_CLIENT
1006:Generated_Source\PSoC4/BLE_1_eventHandler.c ****     if((cyBle_eventHandlerFlag & CYBLE_CALLBACK) != 0u)
1007:Generated_Source\PSoC4/BLE_1_eventHandler.c ****     {
1008:Generated_Source\PSoC4/BLE_1_eventHandler.c ****         CyBle_LnscIndicationEventHandler(eventParam);
1009:Generated_Source\PSoC4/BLE_1_eventHandler.c ****     }
1010:Generated_Source\PSoC4/BLE_1_eventHandler.c **** #endif /* CYBLE_LNS_CLIENT */
1011:Generated_Source\PSoC4/BLE_1_eventHandler.c **** #ifdef CYBLE_PLXS_CLIENT
1012:Generated_Source\PSoC4/BLE_1_eventHandler.c ****     if((cyBle_eventHandlerFlag & CYBLE_CALLBACK) != 0u)
1013:Generated_Source\PSoC4/BLE_1_eventHandler.c ****     {
1014:Generated_Source\PSoC4/BLE_1_eventHandler.c ****         CyBle_PlxscIndicationEventHandler(eventParam);
1015:Generated_Source\PSoC4/BLE_1_eventHandler.c ****     }
1016:Generated_Source\PSoC4/BLE_1_eventHandler.c **** #endif /* CYBLE_PLXS_CLIENT */
1017:Generated_Source\PSoC4/BLE_1_eventHandler.c **** #ifdef CYBLE_RSCS_CLIENT
1018:Generated_Source\PSoC4/BLE_1_eventHandler.c ****     if((cyBle_eventHandlerFlag & CYBLE_CALLBACK) != 0u)
1019:Generated_Source\PSoC4/BLE_1_eventHandler.c ****     {
1020:Generated_Source\PSoC4/BLE_1_eventHandler.c ****         CyBle_RscscIndicationEventHandler(eventParam);
1021:Generated_Source\PSoC4/BLE_1_eventHandler.c ****     }
1022:Generated_Source\PSoC4/BLE_1_eventHandler.c **** #endif /* CYBLE_RSCS_CLIENT */
1023:Generated_Source\PSoC4/BLE_1_eventHandler.c **** #ifdef CYBLE_UDS_CLIENT
1024:Generated_Source\PSoC4/BLE_1_eventHandler.c ****     if((cyBle_eventHandlerFlag & CYBLE_CALLBACK) != 0u)
1025:Generated_Source\PSoC4/BLE_1_eventHandler.c ****     {
1026:Generated_Source\PSoC4/BLE_1_eventHandler.c ****         CyBle_UdscIndicationEventHandler(eventParam);
1027:Generated_Source\PSoC4/BLE_1_eventHandler.c ****     }
1028:Generated_Source\PSoC4/BLE_1_eventHandler.c **** #endif /* CYBLE_UDS_CLIENT */
1029:Generated_Source\PSoC4/BLE_1_eventHandler.c **** #ifdef CYBLE_WPTS_CLIENT
1030:Generated_Source\PSoC4/BLE_1_eventHandler.c ****     if((cyBle_eventHandlerFlag & CYBLE_CALLBACK) != 0u)
1031:Generated_Source\PSoC4/BLE_1_eventHandler.c ****     {
1032:Generated_Source\PSoC4/BLE_1_eventHandler.c ****         CyBle_WptscIndicationEventHandler(eventParam);
1033:Generated_Source\PSoC4/BLE_1_eventHandler.c ****     }
1034:Generated_Source\PSoC4/BLE_1_eventHandler.c **** #endif /* CYBLE_WPTS_CLIENT */
1035:Generated_Source\PSoC4/BLE_1_eventHandler.c **** #ifdef CYBLE_WSS_CLIENT
1036:Generated_Source\PSoC4/BLE_1_eventHandler.c ****     if((cyBle_eventHandlerFlag & CYBLE_CALLBACK) != 0u)
1037:Generated_Source\PSoC4/BLE_1_eventHandler.c ****     {
1038:Generated_Source\PSoC4/BLE_1_eventHandler.c ****         CyBle_WsscIndicationEventHandler(eventParam);
1039:Generated_Source\PSoC4/BLE_1_eventHandler.c ****     }
1040:Generated_Source\PSoC4/BLE_1_eventHandler.c **** #endif /* CYBLE_WSS_CLIENT */
1041:Generated_Source\PSoC4/BLE_1_eventHandler.c **** }
1042:Generated_Source\PSoC4/BLE_1_eventHandler.c **** 
1043:Generated_Source\PSoC4/BLE_1_eventHandler.c **** /******************************************************************************    
1044:Generated_Source\PSoC4/BLE_1_eventHandler.c **** * Function Name: CyBle_ReadResponseEventHandler
1045:Generated_Source\PSoC4/BLE_1_eventHandler.c **** ***************************************************************************//**
1046:Generated_Source\PSoC4/BLE_1_eventHandler.c **** * 
1047:Generated_Source\PSoC4/BLE_1_eventHandler.c **** *  Handles the Read Response event from BLE stack.
1048:Generated_Source\PSoC4/BLE_1_eventHandler.c **** * 
1049:Generated_Source\PSoC4/BLE_1_eventHandler.c **** *  \param eventParam: event parameter
1050:Generated_Source\PSoC4/BLE_1_eventHandler.c **** * 
1051:Generated_Source\PSoC4/BLE_1_eventHandler.c **** * \return
1052:Generated_Source\PSoC4/BLE_1_eventHandler.c **** *  None
1053:Generated_Source\PSoC4/BLE_1_eventHandler.c **** * 
1054:Generated_Source\PSoC4/BLE_1_eventHandler.c **** ******************************************************************************/
1055:Generated_Source\PSoC4/BLE_1_eventHandler.c **** static void CyBle_ReadResponseEventHandler(CYBLE_GATTC_READ_RSP_PARAM_T *eventParam)
1056:Generated_Source\PSoC4/BLE_1_eventHandler.c **** {
1057:Generated_Source\PSoC4/BLE_1_eventHandler.c **** #ifdef CYBLE_CUSTOM_CLIENT
ARM GAS  C:\Users\ADMINI~1\AppData\Local\Temp\ccMaTind.s 			page 20


1058:Generated_Source\PSoC4/BLE_1_eventHandler.c ****     /* Read response with 128-bit included service uuid */
1059:Generated_Source\PSoC4/BLE_1_eventHandler.c ****     if((CyBle_GetClientState() == CYBLE_CLIENT_STATE_INCL_DISCOVERING) &&
1060:Generated_Source\PSoC4/BLE_1_eventHandler.c ****        (cyBle_discInclInfo.inclDefHandle != 0u))
1061:Generated_Source\PSoC4/BLE_1_eventHandler.c ****     {
1062:Generated_Source\PSoC4/BLE_1_eventHandler.c ****         CYBLE_DISC_SRVC128_INFO_T discServInfo;
1063:Generated_Source\PSoC4/BLE_1_eventHandler.c **** 
1064:Generated_Source\PSoC4/BLE_1_eventHandler.c ****         /* Store service range */
1065:Generated_Source\PSoC4/BLE_1_eventHandler.c ****         discServInfo.range = cyBle_discInclInfo.inclHandleRange;
1066:Generated_Source\PSoC4/BLE_1_eventHandler.c ****         (void)memcpy((void *) discServInfo.uuid.uuid128.value, (void *)eventParam->value.val, event
1067:Generated_Source\PSoC4/BLE_1_eventHandler.c ****         CyBle_CustomcDiscoverServiceEventHandler(&discServInfo);
1068:Generated_Source\PSoC4/BLE_1_eventHandler.c ****         
1069:Generated_Source\PSoC4/BLE_1_eventHandler.c ****         /* Re-initiate CyBle_GattcFindIncludedServices function, setting the start
1070:Generated_Source\PSoC4/BLE_1_eventHandler.c ****            handle to the attribute handle which is placed next to the one used in
1071:Generated_Source\PSoC4/BLE_1_eventHandler.c ****            the above step.
1072:Generated_Source\PSoC4/BLE_1_eventHandler.c ****         */
1073:Generated_Source\PSoC4/BLE_1_eventHandler.c ****         discServInfo.range.startHandle = cyBle_discInclInfo.inclDefHandle + 1u;
1074:Generated_Source\PSoC4/BLE_1_eventHandler.c ****         discServInfo.range.endHandle = cyBle_serverInfo[cyBle_disCount].range.endHandle;
1075:Generated_Source\PSoC4/BLE_1_eventHandler.c ****         if(discServInfo.range.startHandle <= discServInfo.range.endHandle)
1076:Generated_Source\PSoC4/BLE_1_eventHandler.c ****         {
1077:Generated_Source\PSoC4/BLE_1_eventHandler.c ****             if(CYBLE_ERROR_OK != CyBle_GattcFindIncludedServices(cyBle_connHandle, &discServInfo.ra
1078:Generated_Source\PSoC4/BLE_1_eventHandler.c ****             {
1079:Generated_Source\PSoC4/BLE_1_eventHandler.c ****                 CyBle_ApplCallback(CYBLE_EVT_GATTC_INCL_DISCOVERY_FAILED, NULL);
1080:Generated_Source\PSoC4/BLE_1_eventHandler.c ****                 cyBle_eventHandlerFlag &= (uint8)~CYBLE_AUTO_DISCOVERY;
1081:Generated_Source\PSoC4/BLE_1_eventHandler.c ****             }
1082:Generated_Source\PSoC4/BLE_1_eventHandler.c ****         }
1083:Generated_Source\PSoC4/BLE_1_eventHandler.c ****         else /* Continue discovery of the following service */
1084:Generated_Source\PSoC4/BLE_1_eventHandler.c ****         {
1085:Generated_Source\PSoC4/BLE_1_eventHandler.c ****             CyBle_NextInclDiscovery(CYBLE_DISCOVERY_CONTINUE);
1086:Generated_Source\PSoC4/BLE_1_eventHandler.c ****         }
1087:Generated_Source\PSoC4/BLE_1_eventHandler.c ****         
1088:Generated_Source\PSoC4/BLE_1_eventHandler.c ****         cyBle_eventHandlerFlag &= (uint8)~CYBLE_CALLBACK;
1089:Generated_Source\PSoC4/BLE_1_eventHandler.c ****     #ifdef CYBLE_CUSTOM_CLIENT
1090:Generated_Source\PSoC4/BLE_1_eventHandler.c ****         cyBle_discInclInfo.inclDefHandle = 0u;
1091:Generated_Source\PSoC4/BLE_1_eventHandler.c ****     #endif /* CYBLE_CUSTOM_CLIENT */
1092:Generated_Source\PSoC4/BLE_1_eventHandler.c ****     }
1093:Generated_Source\PSoC4/BLE_1_eventHandler.c **** #endif /* CYBLE_CUSTOM_CLIENT */
1094:Generated_Source\PSoC4/BLE_1_eventHandler.c **** #ifdef CYBLE_AIOS_CLIENT
1095:Generated_Source\PSoC4/BLE_1_eventHandler.c ****     if((cyBle_eventHandlerFlag & CYBLE_CALLBACK) != 0u)
1096:Generated_Source\PSoC4/BLE_1_eventHandler.c ****     {
1097:Generated_Source\PSoC4/BLE_1_eventHandler.c ****         CyBle_AioscReadResponseEventHandler(eventParam);
1098:Generated_Source\PSoC4/BLE_1_eventHandler.c ****     }
1099:Generated_Source\PSoC4/BLE_1_eventHandler.c **** #endif /* CYBLE_AIOS_CLIENT */
1100:Generated_Source\PSoC4/BLE_1_eventHandler.c **** #ifdef CYBLE_ANCS_CLIENT
1101:Generated_Source\PSoC4/BLE_1_eventHandler.c ****     if((cyBle_eventHandlerFlag & CYBLE_CALLBACK) != 0u)
1102:Generated_Source\PSoC4/BLE_1_eventHandler.c ****     {
1103:Generated_Source\PSoC4/BLE_1_eventHandler.c ****         CyBle_AncscReadResponseEventHandler(eventParam);
1104:Generated_Source\PSoC4/BLE_1_eventHandler.c ****     }
1105:Generated_Source\PSoC4/BLE_1_eventHandler.c **** #endif /* CYBLE_ANCS_CLIENT */
1106:Generated_Source\PSoC4/BLE_1_eventHandler.c **** #ifdef CYBLE_ANS_CLIENT
1107:Generated_Source\PSoC4/BLE_1_eventHandler.c ****     if((cyBle_eventHandlerFlag & CYBLE_CALLBACK) != 0u)
1108:Generated_Source\PSoC4/BLE_1_eventHandler.c ****     {
1109:Generated_Source\PSoC4/BLE_1_eventHandler.c ****         CyBle_AnscReadResponseEventHandler(eventParam);
1110:Generated_Source\PSoC4/BLE_1_eventHandler.c ****     }
1111:Generated_Source\PSoC4/BLE_1_eventHandler.c **** #endif /* CYBLE_ANS_CLIENT */
1112:Generated_Source\PSoC4/BLE_1_eventHandler.c **** #ifdef CYBLE_BAS_CLIENT
1113:Generated_Source\PSoC4/BLE_1_eventHandler.c ****     if((cyBle_eventHandlerFlag & CYBLE_CALLBACK) != 0u)
1114:Generated_Source\PSoC4/BLE_1_eventHandler.c ****     {
ARM GAS  C:\Users\ADMINI~1\AppData\Local\Temp\ccMaTind.s 			page 21


1115:Generated_Source\PSoC4/BLE_1_eventHandler.c ****         CyBle_BascReadResponseEventHandler(eventParam);
1116:Generated_Source\PSoC4/BLE_1_eventHandler.c ****     }
1117:Generated_Source\PSoC4/BLE_1_eventHandler.c **** #endif /* CYBLE_BAS_CLIENT */
1118:Generated_Source\PSoC4/BLE_1_eventHandler.c **** #ifdef CYBLE_BLS_CLIENT
1119:Generated_Source\PSoC4/BLE_1_eventHandler.c ****     if((cyBle_eventHandlerFlag & CYBLE_CALLBACK) != 0u)
1120:Generated_Source\PSoC4/BLE_1_eventHandler.c ****     {
1121:Generated_Source\PSoC4/BLE_1_eventHandler.c ****         CyBle_BlscReadResponseEventHandler(eventParam);
1122:Generated_Source\PSoC4/BLE_1_eventHandler.c ****     }
1123:Generated_Source\PSoC4/BLE_1_eventHandler.c **** #endif /* CYBLE_BLS_CLIENT */
1124:Generated_Source\PSoC4/BLE_1_eventHandler.c **** #ifdef CYBLE_BCS_CLIENT
1125:Generated_Source\PSoC4/BLE_1_eventHandler.c ****     if((cyBle_eventHandlerFlag & CYBLE_CALLBACK) != 0u)
1126:Generated_Source\PSoC4/BLE_1_eventHandler.c ****     {
1127:Generated_Source\PSoC4/BLE_1_eventHandler.c ****         CyBle_BcscReadResponseEventHandler(eventParam);
1128:Generated_Source\PSoC4/BLE_1_eventHandler.c ****     }
1129:Generated_Source\PSoC4/BLE_1_eventHandler.c **** #endif /* CYBLE_BCS_CLIENT */
1130:Generated_Source\PSoC4/BLE_1_eventHandler.c **** #ifdef CYBLE_BMS_CLIENT
1131:Generated_Source\PSoC4/BLE_1_eventHandler.c ****     if((cyBle_eventHandlerFlag & CYBLE_CALLBACK) != 0u)
1132:Generated_Source\PSoC4/BLE_1_eventHandler.c ****     {
1133:Generated_Source\PSoC4/BLE_1_eventHandler.c ****         CyBle_BmscReadResponseEventHandler(eventParam);
1134:Generated_Source\PSoC4/BLE_1_eventHandler.c ****     }
1135:Generated_Source\PSoC4/BLE_1_eventHandler.c **** #endif /* CYBLE_BMS_CLIENT */
1136:Generated_Source\PSoC4/BLE_1_eventHandler.c **** #ifdef CYBLE_CGMS_CLIENT
1137:Generated_Source\PSoC4/BLE_1_eventHandler.c ****     if((cyBle_eventHandlerFlag & CYBLE_CALLBACK) != 0u)
1138:Generated_Source\PSoC4/BLE_1_eventHandler.c ****     {
1139:Generated_Source\PSoC4/BLE_1_eventHandler.c ****         CyBle_CgmscReadResponseEventHandler(eventParam);
1140:Generated_Source\PSoC4/BLE_1_eventHandler.c ****     }
1141:Generated_Source\PSoC4/BLE_1_eventHandler.c **** #endif /* CYBLE_CGMS_CLIENT */
1142:Generated_Source\PSoC4/BLE_1_eventHandler.c **** #ifdef CYBLE_CPS_CLIENT
1143:Generated_Source\PSoC4/BLE_1_eventHandler.c ****     if((cyBle_eventHandlerFlag & CYBLE_CALLBACK) != 0u)
1144:Generated_Source\PSoC4/BLE_1_eventHandler.c ****     {
1145:Generated_Source\PSoC4/BLE_1_eventHandler.c ****         CyBle_CpscReadResponseEventHandler(eventParam);
1146:Generated_Source\PSoC4/BLE_1_eventHandler.c ****     }
1147:Generated_Source\PSoC4/BLE_1_eventHandler.c **** #endif /* CYBLE_CPS_CLIENT */
1148:Generated_Source\PSoC4/BLE_1_eventHandler.c **** #ifdef CYBLE_CSCS_CLIENT
1149:Generated_Source\PSoC4/BLE_1_eventHandler.c ****     if((cyBle_eventHandlerFlag & CYBLE_CALLBACK) != 0u)
1150:Generated_Source\PSoC4/BLE_1_eventHandler.c ****     {
1151:Generated_Source\PSoC4/BLE_1_eventHandler.c ****         CyBle_CscscReadResponseEventHandler(eventParam);
1152:Generated_Source\PSoC4/BLE_1_eventHandler.c ****     }
1153:Generated_Source\PSoC4/BLE_1_eventHandler.c **** #endif /* CYBLE_CSCS_CLIENT */
1154:Generated_Source\PSoC4/BLE_1_eventHandler.c **** #ifdef CYBLE_CTS_CLIENT
1155:Generated_Source\PSoC4/BLE_1_eventHandler.c ****     if((cyBle_eventHandlerFlag & CYBLE_CALLBACK) != 0u)
1156:Generated_Source\PSoC4/BLE_1_eventHandler.c ****     {
1157:Generated_Source\PSoC4/BLE_1_eventHandler.c ****         CyBle_CtscReadResponseEventHandler(eventParam);
1158:Generated_Source\PSoC4/BLE_1_eventHandler.c ****     }
1159:Generated_Source\PSoC4/BLE_1_eventHandler.c **** #endif /* CYBLE_BAS_CLIENT */
1160:Generated_Source\PSoC4/BLE_1_eventHandler.c **** #ifdef CYBLE_DIS_CLIENT
1161:Generated_Source\PSoC4/BLE_1_eventHandler.c ****     if((cyBle_eventHandlerFlag & CYBLE_CALLBACK) != 0u)
1162:Generated_Source\PSoC4/BLE_1_eventHandler.c ****     {
1163:Generated_Source\PSoC4/BLE_1_eventHandler.c ****         CyBle_DiscReadResponseEventHandler(eventParam);
1164:Generated_Source\PSoC4/BLE_1_eventHandler.c ****     }
1165:Generated_Source\PSoC4/BLE_1_eventHandler.c **** #endif /* CYBLE_DIS_CLIENT */
1166:Generated_Source\PSoC4/BLE_1_eventHandler.c **** #ifdef CYBLE_ESS_CLIENT
1167:Generated_Source\PSoC4/BLE_1_eventHandler.c ****     if((cyBle_eventHandlerFlag & CYBLE_CALLBACK) != 0u)
1168:Generated_Source\PSoC4/BLE_1_eventHandler.c ****     {
1169:Generated_Source\PSoC4/BLE_1_eventHandler.c ****         CyBle_EsscReadResponseEventHandler(eventParam);
1170:Generated_Source\PSoC4/BLE_1_eventHandler.c ****     }
1171:Generated_Source\PSoC4/BLE_1_eventHandler.c **** #endif /* CYBLE_ESS_CLIENT */
ARM GAS  C:\Users\ADMINI~1\AppData\Local\Temp\ccMaTind.s 			page 22


1172:Generated_Source\PSoC4/BLE_1_eventHandler.c **** #ifdef CYBLE_GLS_CLIENT
1173:Generated_Source\PSoC4/BLE_1_eventHandler.c ****     if((cyBle_eventHandlerFlag & CYBLE_CALLBACK) != 0u)
1174:Generated_Source\PSoC4/BLE_1_eventHandler.c ****     {
1175:Generated_Source\PSoC4/BLE_1_eventHandler.c ****         CyBle_GlscReadResponseEventHandler(eventParam);
1176:Generated_Source\PSoC4/BLE_1_eventHandler.c ****     }
1177:Generated_Source\PSoC4/BLE_1_eventHandler.c **** #endif /* CYBLE_GLS_CLIENT */
1178:Generated_Source\PSoC4/BLE_1_eventHandler.c **** #ifdef CYBLE_HIDS_CLIENT
1179:Generated_Source\PSoC4/BLE_1_eventHandler.c ****     if((cyBle_eventHandlerFlag & CYBLE_CALLBACK) != 0u)
1180:Generated_Source\PSoC4/BLE_1_eventHandler.c ****     {
1181:Generated_Source\PSoC4/BLE_1_eventHandler.c ****         CyBle_HidscReadResponseEventHandler(eventParam);
1182:Generated_Source\PSoC4/BLE_1_eventHandler.c ****     }
1183:Generated_Source\PSoC4/BLE_1_eventHandler.c **** #endif /* CYBLE_HIDS_CLIENT */
1184:Generated_Source\PSoC4/BLE_1_eventHandler.c **** #ifdef CYBLE_HPS_CLIENT
1185:Generated_Source\PSoC4/BLE_1_eventHandler.c ****     if((cyBle_eventHandlerFlag & CYBLE_CALLBACK) != 0u)
1186:Generated_Source\PSoC4/BLE_1_eventHandler.c ****     {
1187:Generated_Source\PSoC4/BLE_1_eventHandler.c ****         CyBle_HpscReadResponseEventHandler(eventParam);
1188:Generated_Source\PSoC4/BLE_1_eventHandler.c ****     }
1189:Generated_Source\PSoC4/BLE_1_eventHandler.c **** #endif /* CYBLE_HPS_CLIENT */
1190:Generated_Source\PSoC4/BLE_1_eventHandler.c **** #ifdef CYBLE_HRS_CLIENT
1191:Generated_Source\PSoC4/BLE_1_eventHandler.c ****     if((cyBle_eventHandlerFlag & CYBLE_CALLBACK) != 0u)
1192:Generated_Source\PSoC4/BLE_1_eventHandler.c ****     {
1193:Generated_Source\PSoC4/BLE_1_eventHandler.c ****         CyBle_HrscReadResponseEventHandler(eventParam);
1194:Generated_Source\PSoC4/BLE_1_eventHandler.c ****     }
1195:Generated_Source\PSoC4/BLE_1_eventHandler.c **** #endif /* CYBLE_HRS_CLIENT */
1196:Generated_Source\PSoC4/BLE_1_eventHandler.c **** #ifdef CYBLE_HTS_CLIENT
1197:Generated_Source\PSoC4/BLE_1_eventHandler.c ****     if((cyBle_eventHandlerFlag & CYBLE_CALLBACK) != 0u)
1198:Generated_Source\PSoC4/BLE_1_eventHandler.c ****     {
1199:Generated_Source\PSoC4/BLE_1_eventHandler.c ****         CyBle_HtscReadResponseEventHandler(eventParam);
1200:Generated_Source\PSoC4/BLE_1_eventHandler.c ****     }
1201:Generated_Source\PSoC4/BLE_1_eventHandler.c **** #endif /* CYBLE_HTS_CLIENT */
1202:Generated_Source\PSoC4/BLE_1_eventHandler.c **** #ifdef CYBLE_IPS_CLIENT
1203:Generated_Source\PSoC4/BLE_1_eventHandler.c ****     if((cyBle_eventHandlerFlag & CYBLE_CALLBACK) != 0u)
1204:Generated_Source\PSoC4/BLE_1_eventHandler.c ****     {
1205:Generated_Source\PSoC4/BLE_1_eventHandler.c ****         CyBle_IpscReadResponseEventHandler(eventParam);
1206:Generated_Source\PSoC4/BLE_1_eventHandler.c ****     }
1207:Generated_Source\PSoC4/BLE_1_eventHandler.c **** #endif /* CYBLE_IPS_CLIENT */
1208:Generated_Source\PSoC4/BLE_1_eventHandler.c **** #ifdef CYBLE_LLS_CLIENT
1209:Generated_Source\PSoC4/BLE_1_eventHandler.c ****     if((cyBle_eventHandlerFlag & CYBLE_CALLBACK) != 0u)
1210:Generated_Source\PSoC4/BLE_1_eventHandler.c ****     {
1211:Generated_Source\PSoC4/BLE_1_eventHandler.c ****         CyBle_LlscReadResponseEventHandler(eventParam);
1212:Generated_Source\PSoC4/BLE_1_eventHandler.c ****     }
1213:Generated_Source\PSoC4/BLE_1_eventHandler.c **** #endif /* CYBLE_LLS_CLIENT */
1214:Generated_Source\PSoC4/BLE_1_eventHandler.c **** #ifdef CYBLE_LNS_CLIENT
1215:Generated_Source\PSoC4/BLE_1_eventHandler.c ****     if((cyBle_eventHandlerFlag & CYBLE_CALLBACK) != 0u)
1216:Generated_Source\PSoC4/BLE_1_eventHandler.c ****     {
1217:Generated_Source\PSoC4/BLE_1_eventHandler.c ****         CyBle_LnscReadResponseEventHandler(eventParam);
1218:Generated_Source\PSoC4/BLE_1_eventHandler.c ****     }
1219:Generated_Source\PSoC4/BLE_1_eventHandler.c **** #endif /* CYBLE_LNS_CLIENT */
1220:Generated_Source\PSoC4/BLE_1_eventHandler.c **** #ifdef CYBLE_NDCS_CLIENT
1221:Generated_Source\PSoC4/BLE_1_eventHandler.c ****     if((cyBle_eventHandlerFlag & CYBLE_CALLBACK) != 0u)
1222:Generated_Source\PSoC4/BLE_1_eventHandler.c ****     {
1223:Generated_Source\PSoC4/BLE_1_eventHandler.c ****         CyBle_NdcscReadResponseEventHandler(eventParam);
1224:Generated_Source\PSoC4/BLE_1_eventHandler.c ****     }
1225:Generated_Source\PSoC4/BLE_1_eventHandler.c **** #endif /* CYBLE_NDCS_CLIENT */
1226:Generated_Source\PSoC4/BLE_1_eventHandler.c **** #ifdef CYBLE_PASS_CLIENT
1227:Generated_Source\PSoC4/BLE_1_eventHandler.c ****     if((cyBle_eventHandlerFlag & CYBLE_CALLBACK) != 0u)
1228:Generated_Source\PSoC4/BLE_1_eventHandler.c ****     {
ARM GAS  C:\Users\ADMINI~1\AppData\Local\Temp\ccMaTind.s 			page 23


1229:Generated_Source\PSoC4/BLE_1_eventHandler.c ****         CyBle_PasscReadResponseEventHandler(eventParam);
1230:Generated_Source\PSoC4/BLE_1_eventHandler.c ****     }
1231:Generated_Source\PSoC4/BLE_1_eventHandler.c **** #endif /* CYBLE_PASS_CLIENT */
1232:Generated_Source\PSoC4/BLE_1_eventHandler.c **** #ifdef CYBLE_PLXS_CLIENT
1233:Generated_Source\PSoC4/BLE_1_eventHandler.c ****     if((cyBle_eventHandlerFlag & CYBLE_CALLBACK) != 0u)
1234:Generated_Source\PSoC4/BLE_1_eventHandler.c ****     {
1235:Generated_Source\PSoC4/BLE_1_eventHandler.c ****         CyBle_PlxscReadResponseEventHandler(eventParam);
1236:Generated_Source\PSoC4/BLE_1_eventHandler.c ****     }
1237:Generated_Source\PSoC4/BLE_1_eventHandler.c **** #endif /* CYBLE_PLXS_CLIENT */
1238:Generated_Source\PSoC4/BLE_1_eventHandler.c **** #ifdef CYBLE_RSCS_CLIENT
1239:Generated_Source\PSoC4/BLE_1_eventHandler.c ****     if((cyBle_eventHandlerFlag & CYBLE_CALLBACK) != 0u)
1240:Generated_Source\PSoC4/BLE_1_eventHandler.c ****     {
1241:Generated_Source\PSoC4/BLE_1_eventHandler.c ****         CyBle_RscscReadResponseEventHandler(eventParam);
1242:Generated_Source\PSoC4/BLE_1_eventHandler.c ****     }
1243:Generated_Source\PSoC4/BLE_1_eventHandler.c **** #endif /* CYBLE_RSCS_CLIENT */
1244:Generated_Source\PSoC4/BLE_1_eventHandler.c **** #ifdef CYBLE_RTUS_CLIENT
1245:Generated_Source\PSoC4/BLE_1_eventHandler.c ****     if((cyBle_eventHandlerFlag & CYBLE_CALLBACK) != 0u)
1246:Generated_Source\PSoC4/BLE_1_eventHandler.c ****     {
1247:Generated_Source\PSoC4/BLE_1_eventHandler.c ****         CyBle_RtuscReadResponseEventHandler(eventParam);
1248:Generated_Source\PSoC4/BLE_1_eventHandler.c ****     }
1249:Generated_Source\PSoC4/BLE_1_eventHandler.c **** #endif /* CYBLE_RTUS_CLIENT */
1250:Generated_Source\PSoC4/BLE_1_eventHandler.c **** #ifdef CYBLE_SCPS_CLIENT
1251:Generated_Source\PSoC4/BLE_1_eventHandler.c ****     if((cyBle_eventHandlerFlag & CYBLE_CALLBACK) != 0u)
1252:Generated_Source\PSoC4/BLE_1_eventHandler.c ****     {
1253:Generated_Source\PSoC4/BLE_1_eventHandler.c ****         CyBle_ScpscReadResponseEventHandler(eventParam);
1254:Generated_Source\PSoC4/BLE_1_eventHandler.c ****     }
1255:Generated_Source\PSoC4/BLE_1_eventHandler.c **** #endif /* CYBLE_SCPS_CLIENT */
1256:Generated_Source\PSoC4/BLE_1_eventHandler.c **** #ifdef CYBLE_TPS_CLIENT
1257:Generated_Source\PSoC4/BLE_1_eventHandler.c ****     if((cyBle_eventHandlerFlag & CYBLE_CALLBACK) != 0u)
1258:Generated_Source\PSoC4/BLE_1_eventHandler.c ****     {
1259:Generated_Source\PSoC4/BLE_1_eventHandler.c ****         CyBle_TpscReadResponseEventHandler(eventParam);
1260:Generated_Source\PSoC4/BLE_1_eventHandler.c ****     }
1261:Generated_Source\PSoC4/BLE_1_eventHandler.c **** #endif /* CYBLE_TPS_CLIENT */
1262:Generated_Source\PSoC4/BLE_1_eventHandler.c **** #ifdef CYBLE_UDS_CLIENT
1263:Generated_Source\PSoC4/BLE_1_eventHandler.c ****     if((cyBle_eventHandlerFlag & CYBLE_CALLBACK) != 0u)
1264:Generated_Source\PSoC4/BLE_1_eventHandler.c ****     {
1265:Generated_Source\PSoC4/BLE_1_eventHandler.c ****         CyBle_UdscReadResponseEventHandler(eventParam);
1266:Generated_Source\PSoC4/BLE_1_eventHandler.c ****     }
1267:Generated_Source\PSoC4/BLE_1_eventHandler.c **** #endif /* CYBLE_UDS_CLIENT */
1268:Generated_Source\PSoC4/BLE_1_eventHandler.c **** #ifdef CYBLE_WPTS_CLIENT
1269:Generated_Source\PSoC4/BLE_1_eventHandler.c ****     if((cyBle_eventHandlerFlag & CYBLE_CALLBACK) != 0u)
1270:Generated_Source\PSoC4/BLE_1_eventHandler.c ****     {
1271:Generated_Source\PSoC4/BLE_1_eventHandler.c ****         CyBle_WptscReadResponseEventHandler(eventParam);
1272:Generated_Source\PSoC4/BLE_1_eventHandler.c ****     }
1273:Generated_Source\PSoC4/BLE_1_eventHandler.c **** #endif /* CYBLE_WPTS_CLIENT */
1274:Generated_Source\PSoC4/BLE_1_eventHandler.c **** #ifdef CYBLE_WSS_CLIENT
1275:Generated_Source\PSoC4/BLE_1_eventHandler.c ****     if((cyBle_eventHandlerFlag & CYBLE_CALLBACK) != 0u)
1276:Generated_Source\PSoC4/BLE_1_eventHandler.c ****     {
1277:Generated_Source\PSoC4/BLE_1_eventHandler.c ****         CyBle_WsscReadResponseEventHandler(eventParam);
1278:Generated_Source\PSoC4/BLE_1_eventHandler.c ****     }
1279:Generated_Source\PSoC4/BLE_1_eventHandler.c **** #endif /* CYBLE_WSS_CLIENT */
1280:Generated_Source\PSoC4/BLE_1_eventHandler.c **** }
1281:Generated_Source\PSoC4/BLE_1_eventHandler.c **** 
1282:Generated_Source\PSoC4/BLE_1_eventHandler.c **** /******************************************************************************    
1283:Generated_Source\PSoC4/BLE_1_eventHandler.c **** * Function Name: CyBle_ReadMultipleResponseEventHandler
1284:Generated_Source\PSoC4/BLE_1_eventHandler.c **** ***************************************************************************//**
1285:Generated_Source\PSoC4/BLE_1_eventHandler.c **** * 
ARM GAS  C:\Users\ADMINI~1\AppData\Local\Temp\ccMaTind.s 			page 24


1286:Generated_Source\PSoC4/BLE_1_eventHandler.c **** *  Handles the Read Multiple Response event from BLE stack.
1287:Generated_Source\PSoC4/BLE_1_eventHandler.c **** * 
1288:Generated_Source\PSoC4/BLE_1_eventHandler.c **** *  \param eventParam: event parameter
1289:Generated_Source\PSoC4/BLE_1_eventHandler.c **** * 
1290:Generated_Source\PSoC4/BLE_1_eventHandler.c **** * \return
1291:Generated_Source\PSoC4/BLE_1_eventHandler.c **** *  None
1292:Generated_Source\PSoC4/BLE_1_eventHandler.c **** * 
1293:Generated_Source\PSoC4/BLE_1_eventHandler.c **** ******************************************************************************/
1294:Generated_Source\PSoC4/BLE_1_eventHandler.c **** static void CyBle_ReadMultipleResponseEventHandler(CYBLE_GATTC_READ_RSP_PARAM_T *eventParam)
1295:Generated_Source\PSoC4/BLE_1_eventHandler.c **** {
1296:Generated_Source\PSoC4/BLE_1_eventHandler.c **** #ifdef CYBLE_CUSTOM_CLIENT
1297:Generated_Source\PSoC4/BLE_1_eventHandler.c ****     /* Read response with 128-bit included service uuid */
1298:Generated_Source\PSoC4/BLE_1_eventHandler.c ****     if((CYBLE_CLIENT_STATE_INCL_DISCOVERING == CyBle_GetClientState()) &&
1299:Generated_Source\PSoC4/BLE_1_eventHandler.c ****        (cyBle_discInclInfo.inclDefHandle != 0u))
1300:Generated_Source\PSoC4/BLE_1_eventHandler.c ****     {
1301:Generated_Source\PSoC4/BLE_1_eventHandler.c ****         CYBLE_DISC_SRVC128_INFO_T discServInfo;
1302:Generated_Source\PSoC4/BLE_1_eventHandler.c **** 
1303:Generated_Source\PSoC4/BLE_1_eventHandler.c ****         /* Store service range */
1304:Generated_Source\PSoC4/BLE_1_eventHandler.c ****         discServInfo.range = cyBle_discInclInfo.inclHandleRange;
1305:Generated_Source\PSoC4/BLE_1_eventHandler.c ****         (void)memcpy((void *) discServInfo.uuid.uuid128.value, (void *)eventParam->value.val, event
1306:Generated_Source\PSoC4/BLE_1_eventHandler.c ****         CyBle_CustomcDiscoverServiceEventHandler(&discServInfo);
1307:Generated_Source\PSoC4/BLE_1_eventHandler.c ****         
1308:Generated_Source\PSoC4/BLE_1_eventHandler.c ****         /* Re-initiate CyBle_GattcFindIncludedServices function, setting the start
1309:Generated_Source\PSoC4/BLE_1_eventHandler.c ****            handle to the attribute handle which is placed next to the one used in
1310:Generated_Source\PSoC4/BLE_1_eventHandler.c ****            the above step.
1311:Generated_Source\PSoC4/BLE_1_eventHandler.c ****         */
1312:Generated_Source\PSoC4/BLE_1_eventHandler.c ****         discServInfo.range.startHandle = cyBle_discInclInfo.inclDefHandle + 1;
1313:Generated_Source\PSoC4/BLE_1_eventHandler.c ****         discServInfo.range.endHandle = cyBle_serverInfo[cyBle_disCount].range.endHandle;
1314:Generated_Source\PSoC4/BLE_1_eventHandler.c ****         if(discServInfo.range.startHandle <= discServInfo.range.endHandle)
1315:Generated_Source\PSoC4/BLE_1_eventHandler.c ****         {
1316:Generated_Source\PSoC4/BLE_1_eventHandler.c ****             if(CYBLE_ERROR_OK != CyBle_GattcFindIncludedServices(cyBle_connHandle, &discServInfo.ra
1317:Generated_Source\PSoC4/BLE_1_eventHandler.c ****             {
1318:Generated_Source\PSoC4/BLE_1_eventHandler.c ****                 CyBle_ApplCallback(CYBLE_EVT_GATTC_INCL_DISCOVERY_FAILED, NULL);
1319:Generated_Source\PSoC4/BLE_1_eventHandler.c ****                 cyBle_eventHandlerFlag &= (uint8)~CYBLE_AUTO_DISCOVERY;
1320:Generated_Source\PSoC4/BLE_1_eventHandler.c ****             }
1321:Generated_Source\PSoC4/BLE_1_eventHandler.c ****         }
1322:Generated_Source\PSoC4/BLE_1_eventHandler.c ****         else /* Continue discovery of the following service */
1323:Generated_Source\PSoC4/BLE_1_eventHandler.c ****         {
1324:Generated_Source\PSoC4/BLE_1_eventHandler.c ****             CyBle_NextInclDiscovery(CYBLE_DISCOVERY_CONTINUE);
1325:Generated_Source\PSoC4/BLE_1_eventHandler.c ****         }
1326:Generated_Source\PSoC4/BLE_1_eventHandler.c ****         
1327:Generated_Source\PSoC4/BLE_1_eventHandler.c ****         cyBle_eventHandlerFlag &= (uint8)~CYBLE_CALLBACK;
1328:Generated_Source\PSoC4/BLE_1_eventHandler.c ****     #ifdef CYBLE_CUSTOM_CLIENT
1329:Generated_Source\PSoC4/BLE_1_eventHandler.c ****         cyBle_discInclInfo.inclDefHandle = 0u;
1330:Generated_Source\PSoC4/BLE_1_eventHandler.c ****     #endif /* CYBLE_CUSTOM_CLIENT */
1331:Generated_Source\PSoC4/BLE_1_eventHandler.c ****     }
1332:Generated_Source\PSoC4/BLE_1_eventHandler.c **** #endif /* CYBLE_CUSTOM_CLIENT */
1333:Generated_Source\PSoC4/BLE_1_eventHandler.c **** #ifdef CYBLE_IPS_CLIENT
1334:Generated_Source\PSoC4/BLE_1_eventHandler.c ****     if((cyBle_eventHandlerFlag & CYBLE_CALLBACK) != 0u)
1335:Generated_Source\PSoC4/BLE_1_eventHandler.c ****     {
1336:Generated_Source\PSoC4/BLE_1_eventHandler.c ****         CyBle_IpscReadMultipleResponseEventHandler(eventParam);
1337:Generated_Source\PSoC4/BLE_1_eventHandler.c ****     }
1338:Generated_Source\PSoC4/BLE_1_eventHandler.c **** #endif /* CYBLE_IPS_CLIENT */
1339:Generated_Source\PSoC4/BLE_1_eventHandler.c ****     /* MISRA 16.7 violation workaround */
1340:Generated_Source\PSoC4/BLE_1_eventHandler.c ****     eventParam = eventParam;
1341:Generated_Source\PSoC4/BLE_1_eventHandler.c **** }
1342:Generated_Source\PSoC4/BLE_1_eventHandler.c **** #endif /* CYBLE_GATT_ROLE_CLIENT */
ARM GAS  C:\Users\ADMINI~1\AppData\Local\Temp\ccMaTind.s 			page 25


1343:Generated_Source\PSoC4/BLE_1_eventHandler.c **** 
1344:Generated_Source\PSoC4/BLE_1_eventHandler.c **** 
1345:Generated_Source\PSoC4/BLE_1_eventHandler.c **** /****************************************************************************** 
1346:Generated_Source\PSoC4/BLE_1_eventHandler.c **** * Function Name: CyBle_DisconnectEventHandler
1347:Generated_Source\PSoC4/BLE_1_eventHandler.c **** ***************************************************************************//**
1348:Generated_Source\PSoC4/BLE_1_eventHandler.c **** * 
1349:Generated_Source\PSoC4/BLE_1_eventHandler.c **** *  Handles the GATT Disconnection event from the BLE stack.
1350:Generated_Source\PSoC4/BLE_1_eventHandler.c **** * 
1351:Generated_Source\PSoC4/BLE_1_eventHandler.c **** * \return
1352:Generated_Source\PSoC4/BLE_1_eventHandler.c **** *  None
1353:Generated_Source\PSoC4/BLE_1_eventHandler.c **** * 
1354:Generated_Source\PSoC4/BLE_1_eventHandler.c **** ******************************************************************************/
1355:Generated_Source\PSoC4/BLE_1_eventHandler.c **** static void CyBle_GattDisconnectEventHandler(void)
1356:Generated_Source\PSoC4/BLE_1_eventHandler.c **** {
  27              		.loc 1 1356 0
  28              		.cfi_startproc
  29              		@ args = 0, pretend = 0, frame = 0
  30              		@ frame_needed = 0, uses_anonymous_args = 0
  31 0000 10B5     		push	{r4, lr}
  32              		.cfi_def_cfa_offset 8
  33              		.cfi_offset 4, -8
  34              		.cfi_offset 14, -4
1357:Generated_Source\PSoC4/BLE_1_eventHandler.c ****     cyBle_connHandle.attId = 0u;
  35              		.loc 1 1357 0
  36 0002 034B     		ldr	r3, .L2
  37 0004 0022     		movs	r2, #0
  38 0006 5A70     		strb	r2, [r3, #1]
1358:Generated_Source\PSoC4/BLE_1_eventHandler.c ****     cyBle_connHandle.bdHandle = 0u;
  39              		.loc 1 1358 0
  40 0008 1A70     		strb	r2, [r3]
1359:Generated_Source\PSoC4/BLE_1_eventHandler.c ****     
1360:Generated_Source\PSoC4/BLE_1_eventHandler.c ****     #if (CYBLE_GATT_ROLE_CLIENT)
1361:Generated_Source\PSoC4/BLE_1_eventHandler.c ****         if(CyBle_GetClientState() == CYBLE_CLIENT_STATE_DISCOVERED)
1362:Generated_Source\PSoC4/BLE_1_eventHandler.c ****         {
1363:Generated_Source\PSoC4/BLE_1_eventHandler.c ****             CyBle_SetClientState(CYBLE_CLIENT_STATE_DISCONNECTED_DISCOVERED);
1364:Generated_Source\PSoC4/BLE_1_eventHandler.c ****         }
1365:Generated_Source\PSoC4/BLE_1_eventHandler.c ****         else
1366:Generated_Source\PSoC4/BLE_1_eventHandler.c ****         {
1367:Generated_Source\PSoC4/BLE_1_eventHandler.c ****             CyBle_SetClientState(CYBLE_CLIENT_STATE_DISCONNECTED);
1368:Generated_Source\PSoC4/BLE_1_eventHandler.c ****         }
1369:Generated_Source\PSoC4/BLE_1_eventHandler.c ****     #endif /* CYBLE_GATT_ROLE_CLIENT */
1370:Generated_Source\PSoC4/BLE_1_eventHandler.c ****         
1371:Generated_Source\PSoC4/BLE_1_eventHandler.c ****     #ifdef CYBLE_CPS_SERVER
1372:Generated_Source\PSoC4/BLE_1_eventHandler.c ****         #if CYBLE_GAP_ROLE_BROADCASTER
1373:Generated_Source\PSoC4/BLE_1_eventHandler.c ****             CyBle_CpssDisconnectEventHandler();
1374:Generated_Source\PSoC4/BLE_1_eventHandler.c ****         #endif /* CYBLE_GAP_ROLE_BROADCASTER */
1375:Generated_Source\PSoC4/BLE_1_eventHandler.c ****     #endif /* CYBLE_CPS_SERVER */
1376:Generated_Source\PSoC4/BLE_1_eventHandler.c **** 
1377:Generated_Source\PSoC4/BLE_1_eventHandler.c ****     #ifdef CYBLE_CPS_CLIENT
1378:Generated_Source\PSoC4/BLE_1_eventHandler.c ****         CyBle_CpscDisconnectEventHandler();
1379:Generated_Source\PSoC4/BLE_1_eventHandler.c ****     #endif /* CYBLE_CPS_CLIENT */
1380:Generated_Source\PSoC4/BLE_1_eventHandler.c **** 
1381:Generated_Source\PSoC4/BLE_1_eventHandler.c ****     #ifdef CYBLE_IAS_SERVER
1382:Generated_Source\PSoC4/BLE_1_eventHandler.c ****         CyBle_IassDisconnectEventHandler();
  41              		.loc 1 1382 0
  42 000a FFF7FEFF 		bl	CyBle_IassDisconnectEventHandler
  43              	.LVL0:
ARM GAS  C:\Users\ADMINI~1\AppData\Local\Temp\ccMaTind.s 			page 26


1383:Generated_Source\PSoC4/BLE_1_eventHandler.c ****     #endif /* CYBLE_IAS_SERVER */
1384:Generated_Source\PSoC4/BLE_1_eventHandler.c ****     
1385:Generated_Source\PSoC4/BLE_1_eventHandler.c ****     #ifdef CYBLE_GLS_SERVER
1386:Generated_Source\PSoC4/BLE_1_eventHandler.c ****         CyBle_GlsInit();
1387:Generated_Source\PSoC4/BLE_1_eventHandler.c ****     #endif /* CYBLE_GLS_SERVER */
1388:Generated_Source\PSoC4/BLE_1_eventHandler.c ****     
1389:Generated_Source\PSoC4/BLE_1_eventHandler.c ****     #ifdef CYBLE_LNS_SERVER
1390:Generated_Source\PSoC4/BLE_1_eventHandler.c ****         CyBle_LnsInit();
1391:Generated_Source\PSoC4/BLE_1_eventHandler.c ****     #endif /* CYBLE_LNS_SERVER */
1392:Generated_Source\PSoC4/BLE_1_eventHandler.c ****     
1393:Generated_Source\PSoC4/BLE_1_eventHandler.c ****     #ifdef CYBLE_UDS_SERVER
1394:Generated_Source\PSoC4/BLE_1_eventHandler.c ****         CyBle_UdsInit();
1395:Generated_Source\PSoC4/BLE_1_eventHandler.c ****     #endif /* CYBLE_UDS_SERVER */
1396:Generated_Source\PSoC4/BLE_1_eventHandler.c **** }
  44              		.loc 1 1396 0
  45              		@ sp needed
  46 000e 10BD     		pop	{r4, pc}
  47              	.L3:
  48              		.align	2
  49              	.L2:
  50 0010 00000000 		.word	cyBle_connHandle
  51              		.cfi_endproc
  52              	.LFE4:
  53              		.size	CyBle_GattDisconnectEventHandler, .-CyBle_GattDisconnectEventHandler
  54              		.section	.text.CyBle_WriteReqHandler,"ax",%progbits
  55              		.align	2
  56              		.code	16
  57              		.thumb_func
  58              		.type	CyBle_WriteReqHandler, %function
  59              	CyBle_WriteReqHandler:
  60              	.LFB2:
 250:Generated_Source\PSoC4/BLE_1_eventHandler.c ****     CYBLE_GATT_ERR_CODE_T gattErr;
  61              		.loc 1 250 0
  62              		.cfi_startproc
  63              		@ args = 0, pretend = 0, frame = 8
  64              		@ frame_needed = 0, uses_anonymous_args = 0
  65              	.LVL1:
  66 0000 10B5     		push	{r4, lr}
  67              		.cfi_def_cfa_offset 8
  68              		.cfi_offset 4, -8
  69              		.cfi_offset 14, -4
  70 0002 82B0     		sub	sp, sp, #8
  71              		.cfi_def_cfa_offset 16
  72 0004 0400     		movs	r4, r0
 256:Generated_Source\PSoC4/BLE_1_eventHandler.c **** #ifdef CYBLE_AIOS_SERVER
  73              		.loc 1 256 0
  74 0006 FFF7FEFF 		bl	CyBle_GattsWriteEventHandler
  75              	.LVL2:
 433:Generated_Source\PSoC4/BLE_1_eventHandler.c ****     {
  76              		.loc 1 433 0
  77 000a 0A4B     		ldr	r3, .L7
  78 000c 1B78     		ldrb	r3, [r3]
  79 000e DB07     		lsls	r3, r3, #31
  80 0010 0ED4     		bmi	.L4
 435:Generated_Source\PSoC4/BLE_1_eventHandler.c ****         {
  81              		.loc 1 435 0
  82 0012 0028     		cmp	r0, #0
ARM GAS  C:\Users\ADMINI~1\AppData\Local\Temp\ccMaTind.s 			page 27


  83 0014 09D0     		beq	.L6
  84              	.LBB2:
 439:Generated_Source\PSoC4/BLE_1_eventHandler.c ****             err_param.attrHandle = eventParam->handleValPair.attrHandle;
  85              		.loc 1 439 0
  86 0016 01A9     		add	r1, sp, #4
  87 0018 1223     		movs	r3, #18
  88 001a 8B70     		strb	r3, [r1, #2]
 440:Generated_Source\PSoC4/BLE_1_eventHandler.c ****             err_param.errorCode = gattErr;
  89              		.loc 1 440 0
  90 001c A389     		ldrh	r3, [r4, #12]
  91 001e 0B80     		strh	r3, [r1]
 441:Generated_Source\PSoC4/BLE_1_eventHandler.c **** 
  92              		.loc 1 441 0
  93 0020 C870     		strb	r0, [r1, #3]
 444:Generated_Source\PSoC4/BLE_1_eventHandler.c ****         }
  94              		.loc 1 444 0
  95 0022 2068     		ldr	r0, [r4]
  96              	.LVL3:
  97 0024 FFF7FEFF 		bl	CyBle_GattsErrorRsp
  98              	.LVL4:
  99              	.LBE2:
 100 0028 02E0     		b	.L4
 101              	.LVL5:
 102              	.L6:
 448:Generated_Source\PSoC4/BLE_1_eventHandler.c ****         }
 103              		.loc 1 448 0
 104 002a 2068     		ldr	r0, [r4]
 105              	.LVL6:
 106 002c FFF7FEFF 		bl	CyBle_GattsWriteRsp
 107              	.LVL7:
 108              	.L4:
 451:Generated_Source\PSoC4/BLE_1_eventHandler.c **** 
 109              		.loc 1 451 0
 110 0030 02B0     		add	sp, sp, #8
 111              		@ sp needed
 112              	.LVL8:
 113 0032 10BD     		pop	{r4, pc}
 114              	.L8:
 115              		.align	2
 116              	.L7:
 117 0034 00000000 		.word	cyBle_eventHandlerFlag
 118              		.cfi_endproc
 119              	.LFE2:
 120              		.size	CyBle_WriteReqHandler, .-CyBle_WriteReqHandler
 121              		.section	.text.CyBle_IsDeviceAddressValid,"ax",%progbits
 122              		.align	2
 123              		.global	CyBle_IsDeviceAddressValid
 124              		.code	16
 125              		.thumb_func
 126              		.type	CyBle_IsDeviceAddressValid, %function
 127              	CyBle_IsDeviceAddressValid:
 128              	.LFB7:
1397:Generated_Source\PSoC4/BLE_1_eventHandler.c **** 
1398:Generated_Source\PSoC4/BLE_1_eventHandler.c **** 
1399:Generated_Source\PSoC4/BLE_1_eventHandler.c **** /****************************************************************************** 
1400:Generated_Source\PSoC4/BLE_1_eventHandler.c **** * Function Name: CyBle_TimeOutEventHandler
1401:Generated_Source\PSoC4/BLE_1_eventHandler.c **** ***************************************************************************//**
ARM GAS  C:\Users\ADMINI~1\AppData\Local\Temp\ccMaTind.s 			page 28


1402:Generated_Source\PSoC4/BLE_1_eventHandler.c **** * 
1403:Generated_Source\PSoC4/BLE_1_eventHandler.c **** *  Handles the CYBLE_EVT_TIMEOUT event from the BLE stack.
1404:Generated_Source\PSoC4/BLE_1_eventHandler.c **** * 
1405:Generated_Source\PSoC4/BLE_1_eventHandler.c **** *  \param eventParam: The pointer to a structure of type CYBLE_TO_REASON_CODE_T.
1406:Generated_Source\PSoC4/BLE_1_eventHandler.c **** * 
1407:Generated_Source\PSoC4/BLE_1_eventHandler.c **** * \return
1408:Generated_Source\PSoC4/BLE_1_eventHandler.c **** *  None
1409:Generated_Source\PSoC4/BLE_1_eventHandler.c **** * 
1410:Generated_Source\PSoC4/BLE_1_eventHandler.c **** ******************************************************************************/
1411:Generated_Source\PSoC4/BLE_1_eventHandler.c **** static void CyBle_TimeOutEventHandler(const CYBLE_TO_REASON_CODE_T *eventParam)
1412:Generated_Source\PSoC4/BLE_1_eventHandler.c **** {
1413:Generated_Source\PSoC4/BLE_1_eventHandler.c ****     if(*eventParam == CYBLE_GATT_RSP_TO)
1414:Generated_Source\PSoC4/BLE_1_eventHandler.c ****     {
1415:Generated_Source\PSoC4/BLE_1_eventHandler.c ****     #if (CYBLE_GATT_ROLE_CLIENT)
1416:Generated_Source\PSoC4/BLE_1_eventHandler.c ****         if((cyBle_eventHandlerFlag & CYBLE_AUTO_DISCOVERY) != 0u)
1417:Generated_Source\PSoC4/BLE_1_eventHandler.c ****         {
1418:Generated_Source\PSoC4/BLE_1_eventHandler.c ****             switch(CyBle_GetClientState())
1419:Generated_Source\PSoC4/BLE_1_eventHandler.c ****             {
1420:Generated_Source\PSoC4/BLE_1_eventHandler.c ****                 case CYBLE_CLIENT_STATE_SRVC_DISCOVERING:
1421:Generated_Source\PSoC4/BLE_1_eventHandler.c ****                     CyBle_ApplCallback(CYBLE_EVT_GATTC_SRVC_DISCOVERY_FAILED, NULL);
1422:Generated_Source\PSoC4/BLE_1_eventHandler.c ****                     break;
1423:Generated_Source\PSoC4/BLE_1_eventHandler.c ****                 case CYBLE_CLIENT_STATE_INCL_DISCOVERING:
1424:Generated_Source\PSoC4/BLE_1_eventHandler.c ****                     CyBle_ApplCallback(CYBLE_EVT_GATTC_INCL_DISCOVERY_FAILED, NULL);
1425:Generated_Source\PSoC4/BLE_1_eventHandler.c ****                     break;
1426:Generated_Source\PSoC4/BLE_1_eventHandler.c ****                 case CYBLE_CLIENT_STATE_CHAR_DISCOVERING:
1427:Generated_Source\PSoC4/BLE_1_eventHandler.c ****                     CyBle_ApplCallback(CYBLE_EVT_GATTC_CHAR_DISCOVERY_FAILED, NULL);
1428:Generated_Source\PSoC4/BLE_1_eventHandler.c ****                     break;
1429:Generated_Source\PSoC4/BLE_1_eventHandler.c ****                 case CYBLE_CLIENT_STATE_DESCR_DISCOVERING:
1430:Generated_Source\PSoC4/BLE_1_eventHandler.c ****                     CyBle_ApplCallback(CYBLE_EVT_GATTC_DESCR_DISCOVERY_FAILED, NULL);
1431:Generated_Source\PSoC4/BLE_1_eventHandler.c ****                     break;
1432:Generated_Source\PSoC4/BLE_1_eventHandler.c ****                 default:        /* Other states should not be set in Auto discovery mode */
1433:Generated_Source\PSoC4/BLE_1_eventHandler.c ****                     break;
1434:Generated_Source\PSoC4/BLE_1_eventHandler.c ****             }
1435:Generated_Source\PSoC4/BLE_1_eventHandler.c ****             cyBle_eventHandlerFlag &= (uint8)~CYBLE_AUTO_DISCOVERY;
1436:Generated_Source\PSoC4/BLE_1_eventHandler.c ****             CyBle_SetClientState(CYBLE_CLIENT_STATE_CONNECTED);
1437:Generated_Source\PSoC4/BLE_1_eventHandler.c ****         }
1438:Generated_Source\PSoC4/BLE_1_eventHandler.c ****     #endif /* CYBLE_GATT_ROLE_CLIENT */
1439:Generated_Source\PSoC4/BLE_1_eventHandler.c ****     #ifdef CYBLE_CPS_SERVER
1440:Generated_Source\PSoC4/BLE_1_eventHandler.c ****         CyBle_CpssTimeOutEventHandler();
1441:Generated_Source\PSoC4/BLE_1_eventHandler.c ****     #endif /* CYBLE_CPS_SERVER */
1442:Generated_Source\PSoC4/BLE_1_eventHandler.c ****     }
1443:Generated_Source\PSoC4/BLE_1_eventHandler.c ****     
1444:Generated_Source\PSoC4/BLE_1_eventHandler.c ****     /* Connection procedure timeout */
1445:Generated_Source\PSoC4/BLE_1_eventHandler.c ****     if(*eventParam == CYBLE_GENERIC_TO)
1446:Generated_Source\PSoC4/BLE_1_eventHandler.c ****     {
1447:Generated_Source\PSoC4/BLE_1_eventHandler.c ****     #if(CYBLE_GAP_ROLE_CENTRAL)
1448:Generated_Source\PSoC4/BLE_1_eventHandler.c ****         if(CyBle_GetState() == CYBLE_STATE_CONNECTING)
1449:Generated_Source\PSoC4/BLE_1_eventHandler.c ****         {
1450:Generated_Source\PSoC4/BLE_1_eventHandler.c ****             (void)CyBle_GapcCancelDeviceConnection();
1451:Generated_Source\PSoC4/BLE_1_eventHandler.c ****         }
1452:Generated_Source\PSoC4/BLE_1_eventHandler.c ****     #endif /* CYBLE_GAP_ROLE_CENTRAL */
1453:Generated_Source\PSoC4/BLE_1_eventHandler.c ****     }
1454:Generated_Source\PSoC4/BLE_1_eventHandler.c **** }
1455:Generated_Source\PSoC4/BLE_1_eventHandler.c **** 
1456:Generated_Source\PSoC4/BLE_1_eventHandler.c **** 
1457:Generated_Source\PSoC4/BLE_1_eventHandler.c **** /****************************************************************************** 
1458:Generated_Source\PSoC4/BLE_1_eventHandler.c **** * Function Name: CyBle_GattConnectReqHandler
ARM GAS  C:\Users\ADMINI~1\AppData\Local\Temp\ccMaTind.s 			page 29


1459:Generated_Source\PSoC4/BLE_1_eventHandler.c **** ***************************************************************************//**
1460:Generated_Source\PSoC4/BLE_1_eventHandler.c **** * 
1461:Generated_Source\PSoC4/BLE_1_eventHandler.c **** *  Handles the GATT connect event from the BLE stack.
1462:Generated_Source\PSoC4/BLE_1_eventHandler.c **** * 
1463:Generated_Source\PSoC4/BLE_1_eventHandler.c **** * \return
1464:Generated_Source\PSoC4/BLE_1_eventHandler.c **** *  None
1465:Generated_Source\PSoC4/BLE_1_eventHandler.c **** * 
1466:Generated_Source\PSoC4/BLE_1_eventHandler.c **** ******************************************************************************/
1467:Generated_Source\PSoC4/BLE_1_eventHandler.c **** static void CyBle_GattConnectReqHandler(void)
1468:Generated_Source\PSoC4/BLE_1_eventHandler.c **** {
1469:Generated_Source\PSoC4/BLE_1_eventHandler.c ****     #ifdef CYBLE_CGMS_SERVER
1470:Generated_Source\PSoC4/BLE_1_eventHandler.c ****         CyBle_CgmsInit();
1471:Generated_Source\PSoC4/BLE_1_eventHandler.c ****     #endif /* CYBLE_CGMS_SERVER */
1472:Generated_Source\PSoC4/BLE_1_eventHandler.c ****     
1473:Generated_Source\PSoC4/BLE_1_eventHandler.c ****     #ifdef CYBLE_CPS_SERVER
1474:Generated_Source\PSoC4/BLE_1_eventHandler.c ****         CyBle_CpssConnectEventHandler();
1475:Generated_Source\PSoC4/BLE_1_eventHandler.c ****     #endif /* CYBLE_CPS_SERVER */
1476:Generated_Source\PSoC4/BLE_1_eventHandler.c ****     
1477:Generated_Source\PSoC4/BLE_1_eventHandler.c ****     #ifdef CYBLE_CSCS_SERVER
1478:Generated_Source\PSoC4/BLE_1_eventHandler.c ****             CyBle_CscsInit();
1479:Generated_Source\PSoC4/BLE_1_eventHandler.c ****     #endif /* CYBLE_CSCS_SERVER */
1480:Generated_Source\PSoC4/BLE_1_eventHandler.c ****     
1481:Generated_Source\PSoC4/BLE_1_eventHandler.c ****     #ifdef CYBLE_LLS_SERVER
1482:Generated_Source\PSoC4/BLE_1_eventHandler.c ****         CyBle_LlssConnectEventHandler();
1483:Generated_Source\PSoC4/BLE_1_eventHandler.c ****     #endif /* CYBLE_LLS_SERVER */
1484:Generated_Source\PSoC4/BLE_1_eventHandler.c ****     
1485:Generated_Source\PSoC4/BLE_1_eventHandler.c ****     #ifdef CYBLE_HIDS_SERVER
1486:Generated_Source\PSoC4/BLE_1_eventHandler.c ****         CyBle_HidssOnDeviceConnected();
1487:Generated_Source\PSoC4/BLE_1_eventHandler.c ****     #endif /* CYBLE_HIDS_SERVER */
1488:Generated_Source\PSoC4/BLE_1_eventHandler.c **** 
1489:Generated_Source\PSoC4/BLE_1_eventHandler.c ****     #ifdef CYBLE_RSCS_SERVER
1490:Generated_Source\PSoC4/BLE_1_eventHandler.c ****         CyBle_RscsInit();
1491:Generated_Source\PSoC4/BLE_1_eventHandler.c ****     #endif /* CYBLE_RSCS_SERVER */
1492:Generated_Source\PSoC4/BLE_1_eventHandler.c **** }
1493:Generated_Source\PSoC4/BLE_1_eventHandler.c **** 
1494:Generated_Source\PSoC4/BLE_1_eventHandler.c **** 
1495:Generated_Source\PSoC4/BLE_1_eventHandler.c **** #if (CYBLE_GATT_ROLE_SERVER || CYBLE_GATT_ROLE_CLIENT)
1496:Generated_Source\PSoC4/BLE_1_eventHandler.c **** 
1497:Generated_Source\PSoC4/BLE_1_eventHandler.c **** /****************************************************************************** 
1498:Generated_Source\PSoC4/BLE_1_eventHandler.c **** * Function Name: CyBle_IsDeviceAddressValid
1499:Generated_Source\PSoC4/BLE_1_eventHandler.c **** ***************************************************************************//**
1500:Generated_Source\PSoC4/BLE_1_eventHandler.c **** * 
1501:Generated_Source\PSoC4/BLE_1_eventHandler.c **** *  This function verifies that BLE public address has been programmed to SFLASH 
1502:Generated_Source\PSoC4/BLE_1_eventHandler.c **** *  during manufacture. It could be used to verify if public device address is 
1503:Generated_Source\PSoC4/BLE_1_eventHandler.c **** *  programmed to flash memory.
1504:Generated_Source\PSoC4/BLE_1_eventHandler.c **** * 
1505:Generated_Source\PSoC4/BLE_1_eventHandler.c **** *  \param deviceAddress: the pointer to the BD address of type CYBLE_GAP_BD_ADDR_T. 
1506:Generated_Source\PSoC4/BLE_1_eventHandler.c **** * 
1507:Generated_Source\PSoC4/BLE_1_eventHandler.c **** * \return
1508:Generated_Source\PSoC4/BLE_1_eventHandler.c **** *  Non zero value when a device address differs from the default SFLASH content.
1509:Generated_Source\PSoC4/BLE_1_eventHandler.c **** * 
1510:Generated_Source\PSoC4/BLE_1_eventHandler.c **** ******************************************************************************/
1511:Generated_Source\PSoC4/BLE_1_eventHandler.c **** uint8 CyBle_IsDeviceAddressValid(const CYBLE_GAP_BD_ADDR_T *deviceAddress)
1512:Generated_Source\PSoC4/BLE_1_eventHandler.c **** {
 129              		.loc 1 1512 0
 130              		.cfi_startproc
 131              		@ args = 0, pretend = 0, frame = 0
ARM GAS  C:\Users\ADMINI~1\AppData\Local\Temp\ccMaTind.s 			page 30


 132              		@ frame_needed = 0, uses_anonymous_args = 0
 133              		@ link register save eliminated.
 134              	.LVL9:
1513:Generated_Source\PSoC4/BLE_1_eventHandler.c ****     uint8 i;
1514:Generated_Source\PSoC4/BLE_1_eventHandler.c ****     uint8 addressValid = 0u;
1515:Generated_Source\PSoC4/BLE_1_eventHandler.c ****     
1516:Generated_Source\PSoC4/BLE_1_eventHandler.c ****     if(deviceAddress -> type == CYBLE_GAP_ADDR_TYPE_PUBLIC)  
 135              		.loc 1 1516 0
 136 0000 8379     		ldrb	r3, [r0, #6]
 137 0002 002B     		cmp	r3, #0
 138 0004 07D0     		beq	.L13
1514:Generated_Source\PSoC4/BLE_1_eventHandler.c ****     
 139              		.loc 1 1514 0
 140 0006 0020     		movs	r0, #0
 141              	.LVL10:
 142 0008 0BE0     		b	.L11
 143              	.LVL11:
 144              	.L12:
1517:Generated_Source\PSoC4/BLE_1_eventHandler.c ****     {
1518:Generated_Source\PSoC4/BLE_1_eventHandler.c ****         for(i = 0u; i < CYBLE_GAP_BD_ADDR_SIZE; i++)
1519:Generated_Source\PSoC4/BLE_1_eventHandler.c ****         {
1520:Generated_Source\PSoC4/BLE_1_eventHandler.c ****             if(deviceAddress->bdAddr[i] != 0u)
 145              		.loc 1 1520 0
 146 000a C25C     		ldrb	r2, [r0, r3]
 147 000c 002A     		cmp	r2, #0
 148 000e 07D1     		bne	.L14
1518:Generated_Source\PSoC4/BLE_1_eventHandler.c ****         {
 149              		.loc 1 1518 0 discriminator 2
 150 0010 0133     		adds	r3, r3, #1
 151              	.LVL12:
 152 0012 DBB2     		uxtb	r3, r3
 153              	.LVL13:
 154 0014 00E0     		b	.L10
 155              	.LVL14:
 156              	.L13:
 157 0016 0023     		movs	r3, #0
 158              	.L10:
 159              	.LVL15:
1518:Generated_Source\PSoC4/BLE_1_eventHandler.c ****         {
 160              		.loc 1 1518 0 is_stmt 0 discriminator 1
 161 0018 052B     		cmp	r3, #5
 162 001a F6D9     		bls	.L12
1514:Generated_Source\PSoC4/BLE_1_eventHandler.c ****     
 163              		.loc 1 1514 0 is_stmt 1
 164 001c 0020     		movs	r0, #0
 165              	.LVL16:
 166 001e 00E0     		b	.L11
 167              	.LVL17:
 168              	.L14:
1521:Generated_Source\PSoC4/BLE_1_eventHandler.c ****             {
1522:Generated_Source\PSoC4/BLE_1_eventHandler.c ****                 addressValid = 1u;
 169              		.loc 1 1522 0
 170 0020 0120     		movs	r0, #1
 171              	.LVL18:
 172              	.L11:
1523:Generated_Source\PSoC4/BLE_1_eventHandler.c ****                 break;
1524:Generated_Source\PSoC4/BLE_1_eventHandler.c ****             }
ARM GAS  C:\Users\ADMINI~1\AppData\Local\Temp\ccMaTind.s 			page 31


1525:Generated_Source\PSoC4/BLE_1_eventHandler.c ****         }
1526:Generated_Source\PSoC4/BLE_1_eventHandler.c ****     }
1527:Generated_Source\PSoC4/BLE_1_eventHandler.c ****     return (addressValid);
1528:Generated_Source\PSoC4/BLE_1_eventHandler.c **** }
 173              		.loc 1 1528 0
 174              		@ sp needed
 175 0022 7047     		bx	lr
 176              		.cfi_endproc
 177              	.LFE7:
 178              		.size	CyBle_IsDeviceAddressValid, .-CyBle_IsDeviceAddressValid
 179              		.section	.text.CyBle_EventHandler,"ax",%progbits
 180              		.align	2
 181              		.global	CyBle_EventHandler
 182              		.code	16
 183              		.thumb_func
 184              		.type	CyBle_EventHandler, %function
 185              	CyBle_EventHandler:
 186              	.LFB10:
1529:Generated_Source\PSoC4/BLE_1_eventHandler.c **** #endif /* CYBLE_GATT_ROLE_SERVER || CYBLE_GATT_ROLE_CLIENT */
1530:Generated_Source\PSoC4/BLE_1_eventHandler.c **** 
1531:Generated_Source\PSoC4/BLE_1_eventHandler.c **** 
1532:Generated_Source\PSoC4/BLE_1_eventHandler.c **** /****************************************************************************** 
1533:Generated_Source\PSoC4/BLE_1_eventHandler.c **** * Function Name: CyBle_L2Cap_ConnParamUpdateRspHandler
1534:Generated_Source\PSoC4/BLE_1_eventHandler.c **** ***************************************************************************//**
1535:Generated_Source\PSoC4/BLE_1_eventHandler.c **** * 
1536:Generated_Source\PSoC4/BLE_1_eventHandler.c **** *  Handles the L2CAP connection parameter response event from
1537:Generated_Source\PSoC4/BLE_1_eventHandler.c **** *  the BLE stack.
1538:Generated_Source\PSoC4/BLE_1_eventHandler.c **** * 
1539:Generated_Source\PSoC4/BLE_1_eventHandler.c **** *  \param response:
1540:Generated_Source\PSoC4/BLE_1_eventHandler.c **** *      * Accepted = 0x0000
1541:Generated_Source\PSoC4/BLE_1_eventHandler.c **** *      * Rejected = 0x0001
1542:Generated_Source\PSoC4/BLE_1_eventHandler.c **** * 
1543:Generated_Source\PSoC4/BLE_1_eventHandler.c **** * \return
1544:Generated_Source\PSoC4/BLE_1_eventHandler.c **** *  None
1545:Generated_Source\PSoC4/BLE_1_eventHandler.c **** * 
1546:Generated_Source\PSoC4/BLE_1_eventHandler.c **** ******************************************************************************/
1547:Generated_Source\PSoC4/BLE_1_eventHandler.c **** static void CyBle_L2Cap_ConnParamUpdateRspEventHandler(uint16 response)
1548:Generated_Source\PSoC4/BLE_1_eventHandler.c **** {
1549:Generated_Source\PSoC4/BLE_1_eventHandler.c ****     #ifdef CYBLE_CPS_SERVER
1550:Generated_Source\PSoC4/BLE_1_eventHandler.c ****         CyBle_CpssConnParamUpdateRspEventHandler(response);
1551:Generated_Source\PSoC4/BLE_1_eventHandler.c ****     #endif /* CYBLE_CPS_SERVER */
1552:Generated_Source\PSoC4/BLE_1_eventHandler.c ****     
1553:Generated_Source\PSoC4/BLE_1_eventHandler.c ****     /* Unreferenced variable warning workaround */
1554:Generated_Source\PSoC4/BLE_1_eventHandler.c ****     if(response != 0u)
1555:Generated_Source\PSoC4/BLE_1_eventHandler.c ****     {
1556:Generated_Source\PSoC4/BLE_1_eventHandler.c ****     }
1557:Generated_Source\PSoC4/BLE_1_eventHandler.c **** }
1558:Generated_Source\PSoC4/BLE_1_eventHandler.c **** 
1559:Generated_Source\PSoC4/BLE_1_eventHandler.c **** 
1560:Generated_Source\PSoC4/BLE_1_eventHandler.c **** /****************************************************************************** 
1561:Generated_Source\PSoC4/BLE_1_eventHandler.c **** * Function Name: CyBle_GapConnUpdateCompleteEventHandler
1562:Generated_Source\PSoC4/BLE_1_eventHandler.c **** ***************************************************************************//**
1563:Generated_Source\PSoC4/BLE_1_eventHandler.c **** * 
1564:Generated_Source\PSoC4/BLE_1_eventHandler.c **** *  Handles the CYBLE_EVT_GAP_CONNECTION_UPDATE_COMPLETE event from
1565:Generated_Source\PSoC4/BLE_1_eventHandler.c **** *  the BLE stack.
1566:Generated_Source\PSoC4/BLE_1_eventHandler.c **** * 
1567:Generated_Source\PSoC4/BLE_1_eventHandler.c **** *  \param eventParam: The pointer to the data structure specified by the event.
ARM GAS  C:\Users\ADMINI~1\AppData\Local\Temp\ccMaTind.s 			page 32


1568:Generated_Source\PSoC4/BLE_1_eventHandler.c **** * 
1569:Generated_Source\PSoC4/BLE_1_eventHandler.c **** * \return
1570:Generated_Source\PSoC4/BLE_1_eventHandler.c **** *  None
1571:Generated_Source\PSoC4/BLE_1_eventHandler.c **** * 
1572:Generated_Source\PSoC4/BLE_1_eventHandler.c **** ******************************************************************************/
1573:Generated_Source\PSoC4/BLE_1_eventHandler.c **** static void CyBle_GapConnUpdateCompleteEventHandler(const CYBLE_GAP_CONN_PARAM_UPDATED_IN_CONTROLLE
1574:Generated_Source\PSoC4/BLE_1_eventHandler.c **** {
1575:Generated_Source\PSoC4/BLE_1_eventHandler.c ****     #ifdef CYBLE_CPS_SERVER
1576:Generated_Source\PSoC4/BLE_1_eventHandler.c ****         CyBle_CpssConnUpdateCompleteEventHandler(eventParam);
1577:Generated_Source\PSoC4/BLE_1_eventHandler.c ****     #endif /* CYBLE_CPS_SERVER */
1578:Generated_Source\PSoC4/BLE_1_eventHandler.c ****     
1579:Generated_Source\PSoC4/BLE_1_eventHandler.c ****     /* Unreferenced variable warning workaround */
1580:Generated_Source\PSoC4/BLE_1_eventHandler.c ****     if(eventParam != 0u)
1581:Generated_Source\PSoC4/BLE_1_eventHandler.c ****     {
1582:Generated_Source\PSoC4/BLE_1_eventHandler.c ****     }
1583:Generated_Source\PSoC4/BLE_1_eventHandler.c **** }
1584:Generated_Source\PSoC4/BLE_1_eventHandler.c **** 
1585:Generated_Source\PSoC4/BLE_1_eventHandler.c **** 
1586:Generated_Source\PSoC4/BLE_1_eventHandler.c **** /****************************************************************************** 
1587:Generated_Source\PSoC4/BLE_1_eventHandler.c **** * Function Name: CyBle_EventHandler
1588:Generated_Source\PSoC4/BLE_1_eventHandler.c **** ***************************************************************************//**
1589:Generated_Source\PSoC4/BLE_1_eventHandler.c **** * 
1590:Generated_Source\PSoC4/BLE_1_eventHandler.c **** *  Handles the events from the BLE stack
1591:Generated_Source\PSoC4/BLE_1_eventHandler.c **** * 
1592:Generated_Source\PSoC4/BLE_1_eventHandler.c **** *  \param eventCode:    the event code
1593:Generated_Source\PSoC4/BLE_1_eventHandler.c **** *  \param eventParam:  the event parameters
1594:Generated_Source\PSoC4/BLE_1_eventHandler.c **** * 
1595:Generated_Source\PSoC4/BLE_1_eventHandler.c **** * \return
1596:Generated_Source\PSoC4/BLE_1_eventHandler.c **** *  None.
1597:Generated_Source\PSoC4/BLE_1_eventHandler.c **** * 
1598:Generated_Source\PSoC4/BLE_1_eventHandler.c **** ******************************************************************************/
1599:Generated_Source\PSoC4/BLE_1_eventHandler.c **** void CyBle_EventHandler(uint8 eventCode, void *eventParam)
1600:Generated_Source\PSoC4/BLE_1_eventHandler.c **** {
 187              		.loc 1 1600 0
 188              		.cfi_startproc
 189              		@ args = 0, pretend = 0, frame = 8
 190              		@ frame_needed = 0, uses_anonymous_args = 0
 191              	.LVL19:
 192 0000 F0B5     		push	{r4, r5, r6, r7, lr}
 193              		.cfi_def_cfa_offset 20
 194              		.cfi_offset 4, -20
 195              		.cfi_offset 5, -16
 196              		.cfi_offset 6, -12
 197              		.cfi_offset 7, -8
 198              		.cfi_offset 14, -4
 199 0002 83B0     		sub	sp, sp, #12
 200              		.cfi_def_cfa_offset 32
 201 0004 0400     		movs	r4, r0
 202 0006 0D00     		movs	r5, r1
1601:Generated_Source\PSoC4/BLE_1_eventHandler.c ****     cyBle_eventHandlerFlag |= CYBLE_CALLBACK;
 203              		.loc 1 1601 0
 204 0008 A04A     		ldr	r2, .L43
 205 000a 1178     		ldrb	r1, [r2]
 206              	.LVL20:
 207 000c 0123     		movs	r3, #1
 208 000e 0B43     		orrs	r3, r1
 209 0010 DBB2     		uxtb	r3, r3
ARM GAS  C:\Users\ADMINI~1\AppData\Local\Temp\ccMaTind.s 			page 33


 210 0012 1370     		strb	r3, [r2]
1602:Generated_Source\PSoC4/BLE_1_eventHandler.c **** 
1603:Generated_Source\PSoC4/BLE_1_eventHandler.c ****     /* Common Profile event handling */
1604:Generated_Source\PSoC4/BLE_1_eventHandler.c ****     switch(eventCode)
 211              		.loc 1 1604 0
 212 0014 2728     		cmp	r0, #39
 213 0016 00D1     		bne	.LCB174
 214 0018 C5E0     		b	.L17	@long jump
 215              	.LCB174:
 216 001a 13D8     		bhi	.L18
 217 001c 0628     		cmp	r0, #6
 218 001e 00D1     		bne	.LCB178
 219 0020 88E0     		b	.L19	@long jump
 220              	.LCB178:
 221 0022 05D8     		bhi	.L20
 222 0024 0128     		cmp	r0, #1
 223 0026 24D0     		beq	.L21
 224 0028 0528     		cmp	r0, #5
 225 002a 00D1     		bne	.LCB184
 226 002c 7EE0     		b	.L22	@long jump
 227              	.LCB184:
 228 002e 1BE1     		b	.L16
 229              	.L20:
 230 0030 2428     		cmp	r0, #36
 231 0032 00D1     		bne	.LCB190
 232 0034 B3E0     		b	.L23	@long jump
 233              	.LCB190:
 234 0036 2628     		cmp	r0, #38
 235 0038 00D1     		bne	.LCB192
 236 003a BCE0     		b	.L24	@long jump
 237              	.LCB192:
 238 003c 2128     		cmp	r0, #33
 239 003e 00D0     		beq	.LCB194
 240 0040 12E1     		b	.L16	@long jump
 241              	.LCB194:
 242 0042 8BE0     		b	.L25
 243              	.L18:
 244 0044 4328     		cmp	r0, #67
 245 0046 00D1     		bne	.LCB200
 246 0048 F5E0     		b	.L26	@long jump
 247              	.LCB200:
 248 004a 08D8     		bhi	.L27
 249 004c 4128     		cmp	r0, #65
 250 004e 00D1     		bne	.LCB204
 251 0050 D9E0     		b	.L28	@long jump
 252              	.LCB204:
 253 0052 00D9     		bls	.LCB206
 254 0054 ECE0     		b	.L29	@long jump
 255              	.LCB206:
 256 0056 2828     		cmp	r0, #40
 257 0058 00D1     		bne	.LCB208
 258 005a A8E0     		b	.L30	@long jump
 259              	.LCB208:
 260 005c 04E1     		b	.L16
 261              	.L27:
 262 005e 4E28     		cmp	r0, #78
 263 0060 00D1     		bne	.LCB214
ARM GAS  C:\Users\ADMINI~1\AppData\Local\Temp\ccMaTind.s 			page 34


 264 0062 F4E0     		b	.L31	@long jump
 265              	.LCB214:
 266 0064 FA28     		cmp	r0, #250
 267 0066 00D1     		bne	.LCB216
 268 0068 F9E0     		b	.L32	@long jump
 269              	.LCB216:
 270 006a 4C28     		cmp	r0, #76
 271 006c 00D0     		beq	.LCB218
 272 006e FBE0     		b	.L16	@long jump
 273              	.LCB218:
 274 0070 E9E0     		b	.L33
 275              	.L21:
 276              	.LBB3:
1605:Generated_Source\PSoC4/BLE_1_eventHandler.c ****     {
1606:Generated_Source\PSoC4/BLE_1_eventHandler.c ****         /**********************************************************
1607:Generated_Source\PSoC4/BLE_1_eventHandler.c ****         * General events
1608:Generated_Source\PSoC4/BLE_1_eventHandler.c ****         ************************************************************/
1609:Generated_Source\PSoC4/BLE_1_eventHandler.c ****         case CYBLE_EVT_STACK_ON:
1610:Generated_Source\PSoC4/BLE_1_eventHandler.c ****         #if(CYBLE_MODE_PROFILE)
1611:Generated_Source\PSoC4/BLE_1_eventHandler.c ****         {
1612:Generated_Source\PSoC4/BLE_1_eventHandler.c ****             CYBLE_BLESS_PWR_IN_DB_T bleSsPowerLevel;
1613:Generated_Source\PSoC4/BLE_1_eventHandler.c ****             
1614:Generated_Source\PSoC4/BLE_1_eventHandler.c ****             /* Set Tx Power Level for advertising and connection channels */
1615:Generated_Source\PSoC4/BLE_1_eventHandler.c ****             bleSsPowerLevel.blePwrLevelInDbm = CYBLE_TX_POWER_LEVEL_ADV;
 277              		.loc 1 1615 0
 278 0072 01AE     		add	r6, sp, #4
 279 0074 0727     		movs	r7, #7
 280 0076 3770     		strb	r7, [r6]
1616:Generated_Source\PSoC4/BLE_1_eventHandler.c ****             bleSsPowerLevel.bleSsChId = CYBLE_LL_ADV_CH_TYPE;
 281              		.loc 1 1616 0
 282 0078 0023     		movs	r3, #0
 283 007a 7370     		strb	r3, [r6, #1]
1617:Generated_Source\PSoC4/BLE_1_eventHandler.c ****             (void) CyBle_SetTxPowerLevel (&bleSsPowerLevel);
 284              		.loc 1 1617 0
 285 007c 3000     		movs	r0, r6
 286              	.LVL21:
 287 007e FFF7FEFF 		bl	CyBle_SetTxPowerLevel
 288              	.LVL22:
1618:Generated_Source\PSoC4/BLE_1_eventHandler.c ****             bleSsPowerLevel.blePwrLevelInDbm = CYBLE_TX_POWER_LEVEL_CONN;
 289              		.loc 1 1618 0
 290 0082 3770     		strb	r7, [r6]
1619:Generated_Source\PSoC4/BLE_1_eventHandler.c ****             bleSsPowerLevel.bleSsChId = CYBLE_LL_CONN_CH_TYPE;
 291              		.loc 1 1619 0
 292 0084 0123     		movs	r3, #1
 293 0086 7370     		strb	r3, [r6, #1]
1620:Generated_Source\PSoC4/BLE_1_eventHandler.c ****             (void) CyBle_SetTxPowerLevel (&bleSsPowerLevel);
 294              		.loc 1 1620 0
 295 0088 3000     		movs	r0, r6
 296 008a FFF7FEFF 		bl	CyBle_SetTxPowerLevel
 297              	.LVL23:
1621:Generated_Source\PSoC4/BLE_1_eventHandler.c ****             
1622:Generated_Source\PSoC4/BLE_1_eventHandler.c ****             #if (CYBLE_GATT_ROLE_SERVER)
1623:Generated_Source\PSoC4/BLE_1_eventHandler.c ****                 /* As per Privacy Errata a call to CyBle_EnableDefaultDevicePrivacy() is
1624:Generated_Source\PSoC4/BLE_1_eventHandler.c ****                   required to set a device to use device privacy instead of network privacy
1625:Generated_Source\PSoC4/BLE_1_eventHandler.c ****                   that is enabled by default starting from BLE Stack 3.3.
1626:Generated_Source\PSoC4/BLE_1_eventHandler.c ****                 */
1627:Generated_Source\PSoC4/BLE_1_eventHandler.c ****                 if(cyBle_gaps.rpaOnlyCharHandle != CYBLE_GATT_INVALID_ATTR_HANDLE_VALUE)
ARM GAS  C:\Users\ADMINI~1\AppData\Local\Temp\ccMaTind.s 			page 35


1628:Generated_Source\PSoC4/BLE_1_eventHandler.c ****                 {
1629:Generated_Source\PSoC4/BLE_1_eventHandler.c ****                     CyBle_EnableDefaultDevicePrivacy();
 298              		.loc 1 1629 0
 299 008e FFF7FEFF 		bl	CyBle_EnableDefaultDevicePrivacy
 300              	.LVL24:
 301              	.LBE3:
1630:Generated_Source\PSoC4/BLE_1_eventHandler.c ****                 }
1631:Generated_Source\PSoC4/BLE_1_eventHandler.c ****             #endif /* (CYBLE_GATT_ROLE_SERVER) */
1632:Generated_Source\PSoC4/BLE_1_eventHandler.c ****             
1633:Generated_Source\PSoC4/BLE_1_eventHandler.c ****             #if (CYBLE_STRICT_PAIRING_ENABLED)
1634:Generated_Source\PSoC4/BLE_1_eventHandler.c ****                 (void) CyBle_GapSetSecurityRequirements(CYBLE_STRICT_PAIRING_REQ_VALUE, CYBLE_SECUR
1635:Generated_Source\PSoC4/BLE_1_eventHandler.c ****             #endif /* (CYBLE_STRICT_PAIRING_ENABLED) */
1636:Generated_Source\PSoC4/BLE_1_eventHandler.c ****             
1637:Generated_Source\PSoC4/BLE_1_eventHandler.c ****         }
1638:Generated_Source\PSoC4/BLE_1_eventHandler.c ****         #endif /* CYBLE_MODE_PROFILE */
1639:Generated_Source\PSoC4/BLE_1_eventHandler.c ****         #if (CYBLE_GATT_ROLE_SERVER || CYBLE_GATT_ROLE_CLIENT)
1640:Generated_Source\PSoC4/BLE_1_eventHandler.c ****             /* Set device Address  */
1641:Generated_Source\PSoC4/BLE_1_eventHandler.c ****             if(CyBle_IsDeviceAddressValid(cyBle_sflashDeviceAddress) != 0u)
 302              		.loc 1 1641 0
 303 0092 7F4B     		ldr	r3, .L43+4
 304 0094 1E68     		ldr	r6, [r3]
 305 0096 3000     		movs	r0, r6
 306 0098 FFF7FEFF 		bl	CyBle_IsDeviceAddressValid
 307              	.LVL25:
 308 009c 0028     		cmp	r0, #0
 309 009e 0CD0     		beq	.L34
1642:Generated_Source\PSoC4/BLE_1_eventHandler.c ****             {
1643:Generated_Source\PSoC4/BLE_1_eventHandler.c ****                 (void) CyBle_SetDeviceAddress(cyBle_sflashDeviceAddress);
 310              		.loc 1 1643 0
 311 00a0 3000     		movs	r0, r6
 312 00a2 FFF7FEFF 		bl	CyBle_SetDeviceAddress
 313              	.LVL26:
1644:Generated_Source\PSoC4/BLE_1_eventHandler.c ****                 #if(CYBLE_GAP_ROLE_PERIPHERAL || CYBLE_GAP_ROLE_BROADCASTER)
1645:Generated_Source\PSoC4/BLE_1_eventHandler.c ****                     CyBle_ChangeAdDeviceAddress(cyBle_sflashDeviceAddress, 0u);
 314              		.loc 1 1645 0
 315 00a6 7A4E     		ldr	r6, .L43+4
 316 00a8 0021     		movs	r1, #0
 317 00aa 3068     		ldr	r0, [r6]
 318 00ac FFF7FEFF 		bl	CyBle_ChangeAdDeviceAddress
 319              	.LVL27:
1646:Generated_Source\PSoC4/BLE_1_eventHandler.c ****                     CyBle_ChangeAdDeviceAddress(cyBle_sflashDeviceAddress, 1u);
 320              		.loc 1 1646 0
 321 00b0 3068     		ldr	r0, [r6]
 322 00b2 0121     		movs	r1, #1
 323 00b4 FFF7FEFF 		bl	CyBle_ChangeAdDeviceAddress
 324              	.LVL28:
 325 00b8 2AE0     		b	.L35
 326              	.L34:
 327              	.LBB4:
1647:Generated_Source\PSoC4/BLE_1_eventHandler.c ****                 #endif /* CYBLE_GAP_ROLE_PERIPHERAL || CYBLE_GAP_ROLE_BROADCASTER */    
1648:Generated_Source\PSoC4/BLE_1_eventHandler.c ****             }
1649:Generated_Source\PSoC4/BLE_1_eventHandler.c ****             else
1650:Generated_Source\PSoC4/BLE_1_eventHandler.c ****             {
1651:Generated_Source\PSoC4/BLE_1_eventHandler.c ****             #if (SILICON_GENERATED_DEVICE_ADDRESS != 0u)
1652:Generated_Source\PSoC4/BLE_1_eventHandler.c ****             {
1653:Generated_Source\PSoC4/BLE_1_eventHandler.c ****                 uint32 bdAddrLoc;
1654:Generated_Source\PSoC4/BLE_1_eventHandler.c ****                 bdAddrLoc = (CYBLE_SFLASH_DIE_X_REG & CYBLE_SFLASH_DIE_X_MASK) |
ARM GAS  C:\Users\ADMINI~1\AppData\Local\Temp\ccMaTind.s 			page 36


 328              		.loc 1 1654 0
 329 00ba 764B     		ldr	r3, .L43+8
 330 00bc 1F78     		ldrb	r7, [r3]
1655:Generated_Source\PSoC4/BLE_1_eventHandler.c ****                     ((uint32)(((uint32)CYBLE_SFLASH_DIE_Y_REG) & ((uint32)CYBLE_SFLASH_DIE_Y_MASK))
 331              		.loc 1 1655 0
 332 00be 764B     		ldr	r3, .L43+12
 333 00c0 1878     		ldrb	r0, [r3]
 334 00c2 8001     		lsls	r0, r0, #6
 335 00c4 FC26     		movs	r6, #252
 336 00c6 3601     		lsls	r6, r6, #4
 337 00c8 0200     		movs	r2, r0
 338 00ca 3240     		ands	r2, r6
1654:Generated_Source\PSoC4/BLE_1_eventHandler.c ****                     ((uint32)(((uint32)CYBLE_SFLASH_DIE_Y_REG) & ((uint32)CYBLE_SFLASH_DIE_Y_MASK))
 339              		.loc 1 1654 0
 340 00cc 3F21     		movs	r1, #63
 341 00ce 3940     		ands	r1, r7
 342 00d0 1143     		orrs	r1, r2
1656:Generated_Source\PSoC4/BLE_1_eventHandler.c ****                         CYBLE_SFLASH_DIE_X_BITS) |
1657:Generated_Source\PSoC4/BLE_1_eventHandler.c ****                     ((uint32)(((uint32)CYBLE_SFLASH_DIE_WAFER_REG) & ((uint32)CYBLE_SFLASH_DIE_WAFE
 343              		.loc 1 1657 0
 344 00d2 724B     		ldr	r3, .L43+16
 345 00d4 1B78     		ldrb	r3, [r3]
 346 00d6 1B03     		lsls	r3, r3, #12
 347 00d8 F822     		movs	r2, #248
 348 00da 5202     		lsls	r2, r2, #9
 349 00dc 1340     		ands	r3, r2
1656:Generated_Source\PSoC4/BLE_1_eventHandler.c ****                         CYBLE_SFLASH_DIE_X_BITS) |
 350              		.loc 1 1656 0
 351 00de 1943     		orrs	r1, r3
1658:Generated_Source\PSoC4/BLE_1_eventHandler.c ****                         CYBLE_SFLASH_DIE_XY_BITS) |
1659:Generated_Source\PSoC4/BLE_1_eventHandler.c ****                     ((uint32)(((uint32)CYBLE_SFLASH_DIE_LOT_REG) & ((uint32)CYBLE_SFLASH_DIE_LOT_MA
 352              		.loc 1 1659 0
 353 00e0 6F4B     		ldr	r3, .L43+20
 354 00e2 1B78     		ldrb	r3, [r3]
 355 00e4 5B04     		lsls	r3, r3, #17
 356 00e6 FE22     		movs	r2, #254
 357 00e8 1204     		lsls	r2, r2, #16
 358 00ea 1340     		ands	r3, r2
1654:Generated_Source\PSoC4/BLE_1_eventHandler.c ****                     ((uint32)(((uint32)CYBLE_SFLASH_DIE_Y_REG) & ((uint32)CYBLE_SFLASH_DIE_Y_MASK))
 359              		.loc 1 1654 0
 360 00ec 0B43     		orrs	r3, r1
 361              	.LVL29:
1660:Generated_Source\PSoC4/BLE_1_eventHandler.c ****                         CYBLE_SFLASH_DIE_XYWAFER_BITS);
1661:Generated_Source\PSoC4/BLE_1_eventHandler.c ****                             
1662:Generated_Source\PSoC4/BLE_1_eventHandler.c ****                 cyBle_deviceAddress.bdAddr[0] = (uint8)bdAddrLoc;
 362              		.loc 1 1662 0
 363 00ee 6D4E     		ldr	r6, .L43+24
 364 00f0 3370     		strb	r3, [r6]
1663:Generated_Source\PSoC4/BLE_1_eventHandler.c ****                 cyBle_deviceAddress.bdAddr[1] = (uint8)(bdAddrLoc >> 8u);
 365              		.loc 1 1663 0
 366 00f2 1A0A     		lsrs	r2, r3, #8
 367 00f4 7270     		strb	r2, [r6, #1]
1664:Generated_Source\PSoC4/BLE_1_eventHandler.c ****                 cyBle_deviceAddress.bdAddr[2] = (uint8)(bdAddrLoc >> 16u);
 368              		.loc 1 1664 0
 369 00f6 1B0C     		lsrs	r3, r3, #16
 370              	.LVL30:
 371 00f8 B370     		strb	r3, [r6, #2]
ARM GAS  C:\Users\ADMINI~1\AppData\Local\Temp\ccMaTind.s 			page 37


 372              	.LBE4:
1665:Generated_Source\PSoC4/BLE_1_eventHandler.c ****             }
1666:Generated_Source\PSoC4/BLE_1_eventHandler.c ****             #endif /* SILICON_GENERATED_DEVICE_ADDRESS != 0u */
1667:Generated_Source\PSoC4/BLE_1_eventHandler.c ****                 (void) CyBle_SetDeviceAddress(&cyBle_deviceAddress);
 373              		.loc 1 1667 0
 374 00fa 3000     		movs	r0, r6
 375 00fc FFF7FEFF 		bl	CyBle_SetDeviceAddress
 376              	.LVL31:
1668:Generated_Source\PSoC4/BLE_1_eventHandler.c ****                 #if(CYBLE_GAP_ROLE_PERIPHERAL || CYBLE_GAP_ROLE_BROADCASTER)
1669:Generated_Source\PSoC4/BLE_1_eventHandler.c ****                     CyBle_ChangeAdDeviceAddress(&cyBle_deviceAddress, 0u);
 377              		.loc 1 1669 0
 378 0100 0021     		movs	r1, #0
 379 0102 3000     		movs	r0, r6
 380 0104 FFF7FEFF 		bl	CyBle_ChangeAdDeviceAddress
 381              	.LVL32:
1670:Generated_Source\PSoC4/BLE_1_eventHandler.c ****                     CyBle_ChangeAdDeviceAddress(&cyBle_deviceAddress, 1u);
 382              		.loc 1 1670 0
 383 0108 0121     		movs	r1, #1
 384 010a 3000     		movs	r0, r6
 385 010c FFF7FEFF 		bl	CyBle_ChangeAdDeviceAddress
 386              	.LVL33:
 387              	.L35:
1671:Generated_Source\PSoC4/BLE_1_eventHandler.c ****                 #endif /* CYBLE_GAP_ROLE_PERIPHERAL || CYBLE_GAP_ROLE_BROADCASTER */    
1672:Generated_Source\PSoC4/BLE_1_eventHandler.c ****             }
1673:Generated_Source\PSoC4/BLE_1_eventHandler.c ****             /* Set device IO Capability  */
1674:Generated_Source\PSoC4/BLE_1_eventHandler.c ****             (void) CyBle_GapSetIoCap(CYBLE_IO_CAPABILITY);    
 388              		.loc 1 1674 0
 389 0110 0020     		movs	r0, #0
 390 0112 FFF7FEFF 		bl	CyBle_GapSetIoCap
 391              	.LVL34:
 392              	.LBB5:
1675:Generated_Source\PSoC4/BLE_1_eventHandler.c ****             {
1676:Generated_Source\PSoC4/BLE_1_eventHandler.c ****                 /* Enable all 4.1 events and configured 4.2 events */
1677:Generated_Source\PSoC4/BLE_1_eventHandler.c ****                 uint8 leMask[CYBLE_LE_MASK_LENGTH] = {LO8(CYBLE_LE_MASK), HI8(CYBLE_LE_MASK)};
 393              		.loc 1 1677 0
 394 0116 01A8     		add	r0, sp, #4
 395 0118 3F23     		movs	r3, #63
 396 011a 0370     		strb	r3, [r0]
 397 011c 0023     		movs	r3, #0
 398 011e 4370     		strb	r3, [r0, #1]
1678:Generated_Source\PSoC4/BLE_1_eventHandler.c ****                 (void) CyBle_GapSetLeEventMask(leMask);
 399              		.loc 1 1678 0
 400 0120 FFF7FEFF 		bl	CyBle_GapSetLeEventMask
 401              	.LVL35:
 402              	.LBE5:
1679:Generated_Source\PSoC4/BLE_1_eventHandler.c ****             }
1680:Generated_Source\PSoC4/BLE_1_eventHandler.c ****         #if(CYBLE_DLE_FEATURE_ENABLED)
1681:Generated_Source\PSoC4/BLE_1_eventHandler.c ****         {
1682:Generated_Source\PSoC4/BLE_1_eventHandler.c ****             /* Set maximum suggested TX payload size */
1683:Generated_Source\PSoC4/BLE_1_eventHandler.c ****             uint16 payloadTime = CYBLE_LL_MAX_TX_TIME;
1684:Generated_Source\PSoC4/BLE_1_eventHandler.c ****             (void) CyBle_GapConvertOctetToTime(CYBLE_GAP_PHY_1MBPS, CYBLE_LL_MAX_TX_PAYLOAD_SIZE, &
1685:Generated_Source\PSoC4/BLE_1_eventHandler.c ****             (void) CyBle_GapSetSuggestedDataLength(CYBLE_LL_MAX_TX_PAYLOAD_SIZE, payloadTime); 
1686:Generated_Source\PSoC4/BLE_1_eventHandler.c ****         }
1687:Generated_Source\PSoC4/BLE_1_eventHandler.c ****         #endif /* CYBLE_DLE_FEATURE != 0u */
1688:Generated_Source\PSoC4/BLE_1_eventHandler.c ****         
1689:Generated_Source\PSoC4/BLE_1_eventHandler.c ****         #endif /* CYBLE_GATT_ROLE_SERVER || CYBLE_GATT_ROLE_CLIENT */
1690:Generated_Source\PSoC4/BLE_1_eventHandler.c ****             CyBle_SetState(CYBLE_STATE_DISCONNECTED);
ARM GAS  C:\Users\ADMINI~1\AppData\Local\Temp\ccMaTind.s 			page 38


 403              		.loc 1 1690 0
 404 0124 0422     		movs	r2, #4
 405 0126 604B     		ldr	r3, .L43+28
 406 0128 1A70     		strb	r2, [r3]
1691:Generated_Source\PSoC4/BLE_1_eventHandler.c ****             break;
 407              		.loc 1 1691 0
 408 012a 9DE0     		b	.L16
 409              	.LVL36:
 410              	.L22:
1692:Generated_Source\PSoC4/BLE_1_eventHandler.c ****         case CYBLE_EVT_TIMEOUT:
1693:Generated_Source\PSoC4/BLE_1_eventHandler.c ****             CyBle_TimeOutEventHandler((CYBLE_TO_REASON_CODE_T *)eventParam);
1694:Generated_Source\PSoC4/BLE_1_eventHandler.c ****             break;
1695:Generated_Source\PSoC4/BLE_1_eventHandler.c ****     	case CYBLE_EVT_STACK_BUSY_STATUS:
1696:Generated_Source\PSoC4/BLE_1_eventHandler.c ****             cyBle_busyStatus = *(uint8 *)eventParam;
 411              		.loc 1 1696 0
 412 012c 2A78     		ldrb	r2, [r5]
 413 012e 5F4B     		ldr	r3, .L43+32
 414 0130 1A70     		strb	r2, [r3]
1697:Generated_Source\PSoC4/BLE_1_eventHandler.c ****             break;
 415              		.loc 1 1697 0
 416 0132 99E0     		b	.L16
 417              	.L19:
 418              	.LVL37:
 419              	.LBB6:
1698:Generated_Source\PSoC4/BLE_1_eventHandler.c ****     	case CYBLE_EVT_MEMORY_REQUEST:
1699:Generated_Source\PSoC4/BLE_1_eventHandler.c ****         #if(CYBLE_MODE_PROFILE)
1700:Generated_Source\PSoC4/BLE_1_eventHandler.c ****         {
1701:Generated_Source\PSoC4/BLE_1_eventHandler.c ****             CYBLE_MEMORY_REQUEST_T *memReq = (CYBLE_MEMORY_REQUEST_T *)eventParam;
1702:Generated_Source\PSoC4/BLE_1_eventHandler.c ****             if(memReq->request == CYBLE_PREPARED_WRITE_REQUEST)
 420              		.loc 1 1702 0
 421 0134 2B78     		ldrb	r3, [r5]
 422 0136 002B     		cmp	r3, #0
 423 0138 00D0     		beq	.LCB352
 424 013a 95E0     		b	.L16	@long jump
 425              	.LCB352:
1703:Generated_Source\PSoC4/BLE_1_eventHandler.c ****             {  
1704:Generated_Source\PSoC4/BLE_1_eventHandler.c ****             #if(CYBLE_GATT_ENABLE_EXTERNAL_PREP_WRITE_BUFF == 0u)
1705:Generated_Source\PSoC4/BLE_1_eventHandler.c ****                 /* Stack requests to provide memory to process remote request */
1706:Generated_Source\PSoC4/BLE_1_eventHandler.c ****                 if(memReq->allocFree == CYBLE_ALLOC_MEMORY)
 426              		.loc 1 1706 0
 427 013c 6B78     		ldrb	r3, [r5, #1]
 428 013e 002B     		cmp	r3, #0
 429 0140 06D1     		bne	.L36
 430              	.LBB7:
1707:Generated_Source\PSoC4/BLE_1_eventHandler.c ****                 {
1708:Generated_Source\PSoC4/BLE_1_eventHandler.c ****                     static CYBLE_PREPARE_WRITE_REQUEST_MEMORY_T gPrepWriteReqMem;
1709:Generated_Source\PSoC4/BLE_1_eventHandler.c ****                     
1710:Generated_Source\PSoC4/BLE_1_eventHandler.c ****                     /* Configure and return statically allocated buffer at the end of cyBle_stackMe
1711:Generated_Source\PSoC4/BLE_1_eventHandler.c ****                     gPrepWriteReqMem.prepareWriteQueueSize = CYBLE_GATT_MAX_PREPARE_BUFF_COUNT;
 431              		.loc 1 1711 0
 432 0142 5B4B     		ldr	r3, .L43+36
 433 0144 0022     		movs	r2, #0
 434 0146 DA80     		strh	r2, [r3, #6]
1712:Generated_Source\PSoC4/BLE_1_eventHandler.c ****                     gPrepWriteReqMem.totalAttrValueLength = CYBLE_GATT_PREPARE_LENGTH_ALIGN;
 435              		.loc 1 1712 0
 436 0148 9A80     		strh	r2, [r3, #4]
1713:Generated_Source\PSoC4/BLE_1_eventHandler.c ****                     gPrepWriteReqMem.queueBuffer = &cyBle_stackMemoryRam[CYBLE_STACK_RAM_SIZE - 
ARM GAS  C:\Users\ADMINI~1\AppData\Local\Temp\ccMaTind.s 			page 39


 437              		.loc 1 1713 0
 438 014a 5A4A     		ldr	r2, .L43+40
 439 014c 1A60     		str	r2, [r3]
1714:Generated_Source\PSoC4/BLE_1_eventHandler.c ****                                                                          CYBLE_GATT_PREPARE_WRITE_B
1715:Generated_Source\PSoC4/BLE_1_eventHandler.c ****                     memReq->configMemory = &gPrepWriteReqMem;  
 440              		.loc 1 1715 0
 441 014e 6B60     		str	r3, [r5, #4]
 442              	.L36:
 443              	.LBE7:
1716:Generated_Source\PSoC4/BLE_1_eventHandler.c ****                 }                
1717:Generated_Source\PSoC4/BLE_1_eventHandler.c ****                 /* Clear CYBLE_CALLBACK flag not to provide handled event to application */
1718:Generated_Source\PSoC4/BLE_1_eventHandler.c ****                 cyBle_eventHandlerFlag &= (uint8)~CYBLE_CALLBACK;
 444              		.loc 1 1718 0
 445 0150 4E4A     		ldr	r2, .L43
 446 0152 1378     		ldrb	r3, [r2]
 447 0154 0121     		movs	r1, #1
 448 0156 8B43     		bics	r3, r1
 449 0158 1370     		strb	r3, [r2]
 450 015a 85E0     		b	.L16
 451              	.LVL38:
 452              	.L25:
 453              	.LBE6:
1719:Generated_Source\PSoC4/BLE_1_eventHandler.c ****             #endif  /* CYBLE_GATT_ENABLE_EXTERNAL_PREP_WRITE_BUFF == 0u */
1720:Generated_Source\PSoC4/BLE_1_eventHandler.c ****             }
1721:Generated_Source\PSoC4/BLE_1_eventHandler.c ****         }
1722:Generated_Source\PSoC4/BLE_1_eventHandler.c ****         #endif /* CYBLE_MODE_PROFILE */
1723:Generated_Source\PSoC4/BLE_1_eventHandler.c ****             break;
1724:Generated_Source\PSoC4/BLE_1_eventHandler.c ****         /**********************************************************
1725:Generated_Source\PSoC4/BLE_1_eventHandler.c ****         * GAP events
1726:Generated_Source\PSoC4/BLE_1_eventHandler.c ****         ************************************************************/
1727:Generated_Source\PSoC4/BLE_1_eventHandler.c ****         case CYBLE_EVT_GAP_AUTH_REQ:
1728:Generated_Source\PSoC4/BLE_1_eventHandler.c ****         #if(CYBLE_MODE_PROFILE)
1729:Generated_Source\PSoC4/BLE_1_eventHandler.c ****             if((cyBle_eventHandlerFlag & CYBLE_DISABLE_AUTOMATIC_AUTH) == 0u)
 454              		.loc 1 1729 0
 455 015c 4B4B     		ldr	r3, .L43
 456 015e 1B78     		ldrb	r3, [r3]
 457 0160 9B06     		lsls	r3, r3, #26
 458 0162 00D5     		bpl	.LCB389
 459 0164 80E0     		b	.L16	@long jump
 460              	.LCB389:
1730:Generated_Source\PSoC4/BLE_1_eventHandler.c ****             {
1731:Generated_Source\PSoC4/BLE_1_eventHandler.c ****                 /* If the responding device does not support pairing then the responding 
1732:Generated_Source\PSoC4/BLE_1_eventHandler.c ****                    device shall respond using the Pairing Failed message with the error 
1733:Generated_Source\PSoC4/BLE_1_eventHandler.c ****                    code "Pairing Not Supported" otherwise it responds with a Pairing 
1734:Generated_Source\PSoC4/BLE_1_eventHandler.c ****                    Response message.
1735:Generated_Source\PSoC4/BLE_1_eventHandler.c ****                 */
1736:Generated_Source\PSoC4/BLE_1_eventHandler.c ****                 if(cyBle_authInfo.security == (CYBLE_GAP_SEC_MODE_1 | CYBLE_GAP_SEC_LEVEL_1))
 461              		.loc 1 1736 0
 462 0166 544B     		ldr	r3, .L43+44
 463 0168 1B78     		ldrb	r3, [r3]
 464 016a 102B     		cmp	r3, #16
 465 016c 02D1     		bne	.L37
1737:Generated_Source\PSoC4/BLE_1_eventHandler.c ****                 {
1738:Generated_Source\PSoC4/BLE_1_eventHandler.c ****                     cyBle_authInfo.authErr = CYBLE_GAP_AUTH_ERROR_PAIRING_NOT_SUPPORTED;
 466              		.loc 1 1738 0
 467 016e 0522     		movs	r2, #5
 468 0170 514B     		ldr	r3, .L43+44
ARM GAS  C:\Users\ADMINI~1\AppData\Local\Temp\ccMaTind.s 			page 40


 469 0172 DA70     		strb	r2, [r3, #3]
 470              	.L37:
 471              	.LBB8:
1739:Generated_Source\PSoC4/BLE_1_eventHandler.c ****                 }    
1740:Generated_Source\PSoC4/BLE_1_eventHandler.c ****             #if(CYBLE_GAP_ROLE_PERIPHERAL)
1741:Generated_Source\PSoC4/BLE_1_eventHandler.c ****                 {
1742:Generated_Source\PSoC4/BLE_1_eventHandler.c ****                     CYBLE_API_RESULT_T apiResult;
1743:Generated_Source\PSoC4/BLE_1_eventHandler.c ****                     
1744:Generated_Source\PSoC4/BLE_1_eventHandler.c ****                     apiResult = CyBle_GappAuthReqReply(cyBle_connHandle.bdHandle, &cyBle_authInfo);
 472              		.loc 1 1744 0
 473 0174 514B     		ldr	r3, .L43+48
 474 0176 1878     		ldrb	r0, [r3]
 475              	.LVL39:
 476 0178 4F49     		ldr	r1, .L43+44
 477 017a FFF7FEFF 		bl	CyBle_GappAuthReqReply
 478              	.LVL40:
 479 017e 01AB     		add	r3, sp, #4
 480 0180 1880     		strh	r0, [r3]
1745:Generated_Source\PSoC4/BLE_1_eventHandler.c ****                     /* Setting callback flag again as CyBle_GappAuthReqReply() will generate
1746:Generated_Source\PSoC4/BLE_1_eventHandler.c ****                     * CYBLE_EVT_GAP_SMP_NEGOTIATED_AUTH_INFO event which will clear the callback
1747:Generated_Source\PSoC4/BLE_1_eventHandler.c ****                     * flag.
1748:Generated_Source\PSoC4/BLE_1_eventHandler.c ****                     */
1749:Generated_Source\PSoC4/BLE_1_eventHandler.c ****                     if (apiResult != CYBLE_ERROR_OK)
 481              		.loc 1 1749 0
 482 0182 0028     		cmp	r0, #0
 483 0184 04D0     		beq	.L38
1750:Generated_Source\PSoC4/BLE_1_eventHandler.c ****                     {   
1751:Generated_Source\PSoC4/BLE_1_eventHandler.c ****                         CyBle_ApplCallback(CYBLE_EVT_GAP_AUTH_REQ_REPLY_ERR , &apiResult);
 484              		.loc 1 1751 0
 485 0186 4E4B     		ldr	r3, .L43+52
 486 0188 1B68     		ldr	r3, [r3]
 487 018a 01A9     		add	r1, sp, #4
 488 018c 3620     		movs	r0, #54
 489 018e 9847     		blx	r3
 490              	.LVL41:
 491              	.L38:
1752:Generated_Source\PSoC4/BLE_1_eventHandler.c ****                     }
1753:Generated_Source\PSoC4/BLE_1_eventHandler.c ****                     cyBle_eventHandlerFlag |= CYBLE_CALLBACK;
 492              		.loc 1 1753 0
 493 0190 3E4A     		ldr	r2, .L43
 494 0192 1178     		ldrb	r1, [r2]
 495 0194 0123     		movs	r3, #1
 496 0196 0B43     		orrs	r3, r1
 497 0198 DBB2     		uxtb	r3, r3
 498 019a 1370     		strb	r3, [r2]
 499 019c 64E0     		b	.L16
 500              	.LVL42:
 501              	.L23:
 502              	.LBE8:
1754:Generated_Source\PSoC4/BLE_1_eventHandler.c ****                 }
1755:Generated_Source\PSoC4/BLE_1_eventHandler.c ****             #endif /* CYBLE_GAP_ROLE_PERIPHERAL */
1756:Generated_Source\PSoC4/BLE_1_eventHandler.c ****             #if (CYBLE_GAP_ROLE_CENTRAL)
1757:Generated_Source\PSoC4/BLE_1_eventHandler.c ****                 (void)CyBle_GapAuthReq(cyBle_connHandle.bdHandle, &cyBle_authInfo);
1758:Generated_Source\PSoC4/BLE_1_eventHandler.c ****             #endif /* CYBLE_GAP_ROLE_CENTRAL */
1759:Generated_Source\PSoC4/BLE_1_eventHandler.c ****             }
1760:Generated_Source\PSoC4/BLE_1_eventHandler.c ****         #endif /* CYBLE_MODE_PROFILE */
1761:Generated_Source\PSoC4/BLE_1_eventHandler.c ****             break;
ARM GAS  C:\Users\ADMINI~1\AppData\Local\Temp\ccMaTind.s 			page 41


1762:Generated_Source\PSoC4/BLE_1_eventHandler.c ****         
1763:Generated_Source\PSoC4/BLE_1_eventHandler.c ****         case CYBLE_EVT_GAP_AUTH_COMPLETE:
1764:Generated_Source\PSoC4/BLE_1_eventHandler.c ****         #if((CYBLE_GAP_ROLE_PERIPHERAL || CYBLE_GAP_ROLE_CENTRAL) && (CYBLE_BONDING_REQUIREMENT == 
1765:Generated_Source\PSoC4/BLE_1_eventHandler.c ****             cyBle_peerBonding = ((CYBLE_GAP_AUTH_INFO_T *)eventParam)->bonding;
 503              		.loc 1 1765 0
 504 019e 6A78     		ldrb	r2, [r5, #1]
 505 01a0 484B     		ldr	r3, .L43+56
 506 01a2 1A70     		strb	r2, [r3]
1766:Generated_Source\PSoC4/BLE_1_eventHandler.c ****         #endif  /* CYBLE_BONDING_REQUIREMENT == CYBLE_BONDING_YES */
1767:Generated_Source\PSoC4/BLE_1_eventHandler.c ****             break;
 507              		.loc 1 1767 0
 508 01a4 60E0     		b	.L16
 509              	.L17:
1768:Generated_Source\PSoC4/BLE_1_eventHandler.c ****         
1769:Generated_Source\PSoC4/BLE_1_eventHandler.c ****         case CYBLE_EVT_GAP_CONNECTION_UPDATE_COMPLETE:
1770:Generated_Source\PSoC4/BLE_1_eventHandler.c ****             CyBle_GapConnUpdateCompleteEventHandler((const CYBLE_GAP_CONN_PARAM_UPDATED_IN_CONTROLL
1771:Generated_Source\PSoC4/BLE_1_eventHandler.c ****             break;
1772:Generated_Source\PSoC4/BLE_1_eventHandler.c ****             
1773:Generated_Source\PSoC4/BLE_1_eventHandler.c ****     #if(CYBLE_LL_PRIVACY_FEATURE != 0u)        
1774:Generated_Source\PSoC4/BLE_1_eventHandler.c ****         case CYBLE_EVT_GAP_ENHANCE_CONN_COMPLETE:
1775:Generated_Source\PSoC4/BLE_1_eventHandler.c ****         {
1776:Generated_Source\PSoC4/BLE_1_eventHandler.c ****             CYBLE_GAP_CONN_PARAM_UPDATED_IN_CONTROLLER_T  connCParam;
1777:Generated_Source\PSoC4/BLE_1_eventHandler.c ****             CYBLE_GAP_ENHANCE_CONN_COMPLETE_T *connEnhanceParam;
1778:Generated_Source\PSoC4/BLE_1_eventHandler.c ****             
1779:Generated_Source\PSoC4/BLE_1_eventHandler.c ****             connEnhanceParam = (CYBLE_GAP_ENHANCE_CONN_COMPLETE_T *)eventParam;
1780:Generated_Source\PSoC4/BLE_1_eventHandler.c ****             connCParam.status = connEnhanceParam->status;
1781:Generated_Source\PSoC4/BLE_1_eventHandler.c ****             connCParam.connIntv = connEnhanceParam->connIntv;
1782:Generated_Source\PSoC4/BLE_1_eventHandler.c ****             connCParam.connLatency = connEnhanceParam->connLatency;
1783:Generated_Source\PSoC4/BLE_1_eventHandler.c ****             connCParam.supervisionTO = connEnhanceParam->supervisionTo;
1784:Generated_Source\PSoC4/BLE_1_eventHandler.c ****             CyBle_GapConnUpdateCompleteEventHandler((const CYBLE_GAP_CONN_PARAM_UPDATED_IN_CONTROLL
1785:Generated_Source\PSoC4/BLE_1_eventHandler.c ****             
1786:Generated_Source\PSoC4/BLE_1_eventHandler.c ****             #if(CYBLE_GAP_ROLE_CENTRAL)
1787:Generated_Source\PSoC4/BLE_1_eventHandler.c ****                 if(cyBle_connectingTimeout != 0u)
1788:Generated_Source\PSoC4/BLE_1_eventHandler.c ****                 {
1789:Generated_Source\PSoC4/BLE_1_eventHandler.c ****                    (void)CyBle_StopTimer();
1790:Generated_Source\PSoC4/BLE_1_eventHandler.c ****                 }
1791:Generated_Source\PSoC4/BLE_1_eventHandler.c ****             #endif /* CYBLE_GAP_ROLE_CENTRAL */
1792:Generated_Source\PSoC4/BLE_1_eventHandler.c ****             CyBle_SetState(CYBLE_STATE_CONNECTED);
1793:Generated_Source\PSoC4/BLE_1_eventHandler.c ****         }
1794:Generated_Source\PSoC4/BLE_1_eventHandler.c ****             break;
1795:Generated_Source\PSoC4/BLE_1_eventHandler.c ****     #endif /* CYBLE_LL_PRIVACY_FEATURE != 0u */      
1796:Generated_Source\PSoC4/BLE_1_eventHandler.c ****             
1797:Generated_Source\PSoC4/BLE_1_eventHandler.c ****         case CYBLE_EVT_GAP_DEVICE_CONNECTED:
1798:Generated_Source\PSoC4/BLE_1_eventHandler.c ****             CyBle_GapConnUpdateCompleteEventHandler((const CYBLE_GAP_CONN_PARAM_UPDATED_IN_CONTROLL
1799:Generated_Source\PSoC4/BLE_1_eventHandler.c ****             #if(CYBLE_GAP_ROLE_CENTRAL)
1800:Generated_Source\PSoC4/BLE_1_eventHandler.c ****                 if(cyBle_connectingTimeout != 0u)
1801:Generated_Source\PSoC4/BLE_1_eventHandler.c ****                 {
1802:Generated_Source\PSoC4/BLE_1_eventHandler.c ****                    (void)CyBle_StopTimer();
1803:Generated_Source\PSoC4/BLE_1_eventHandler.c ****                 }
1804:Generated_Source\PSoC4/BLE_1_eventHandler.c ****             #endif /* CYBLE_GAP_ROLE_CENTRAL */
1805:Generated_Source\PSoC4/BLE_1_eventHandler.c ****             CyBle_SetState(CYBLE_STATE_CONNECTED);
 510              		.loc 1 1805 0
 511 01a6 0222     		movs	r2, #2
 512 01a8 3F4B     		ldr	r3, .L43+28
 513 01aa 1A70     		strb	r2, [r3]
1806:Generated_Source\PSoC4/BLE_1_eventHandler.c ****             break;
 514              		.loc 1 1806 0
ARM GAS  C:\Users\ADMINI~1\AppData\Local\Temp\ccMaTind.s 			page 42


 515 01ac 5CE0     		b	.L16
 516              	.L30:
1807:Generated_Source\PSoC4/BLE_1_eventHandler.c **** 
1808:Generated_Source\PSoC4/BLE_1_eventHandler.c ****         case CYBLE_EVT_GAP_DEVICE_DISCONNECTED:
1809:Generated_Source\PSoC4/BLE_1_eventHandler.c ****             CyBle_SetState(CYBLE_STATE_DISCONNECTED);
 517              		.loc 1 1809 0
 518 01ae 0422     		movs	r2, #4
 519 01b0 3D4B     		ldr	r3, .L43+28
 520 01b2 1A70     		strb	r2, [r3]
1810:Generated_Source\PSoC4/BLE_1_eventHandler.c ****             break;
 521              		.loc 1 1810 0
 522 01b4 58E0     		b	.L16
 523              	.L24:
1811:Generated_Source\PSoC4/BLE_1_eventHandler.c ****         #if(CYBLE_GAP_ROLE_PERIPHERAL || CYBLE_GAP_ROLE_BROADCASTER)
1812:Generated_Source\PSoC4/BLE_1_eventHandler.c ****             
1813:Generated_Source\PSoC4/BLE_1_eventHandler.c ****         case CYBLE_EVT_GAPP_ADVERTISEMENT_START_STOP:
1814:Generated_Source\PSoC4/BLE_1_eventHandler.c ****             #ifdef CYBLE_CPS_SERVER
1815:Generated_Source\PSoC4/BLE_1_eventHandler.c ****                 #if(CYBLE_GAP_ROLE_BROADCASTER)
1816:Generated_Source\PSoC4/BLE_1_eventHandler.c ****                     CyBle_CpssAdvertisementStartStopEventHandler();
1817:Generated_Source\PSoC4/BLE_1_eventHandler.c ****                 #endif /* CYBLE_GAP_ROLE_BROADCASTER */
1818:Generated_Source\PSoC4/BLE_1_eventHandler.c ****             #endif /* CYBLE_CPS_SERVER */
1819:Generated_Source\PSoC4/BLE_1_eventHandler.c ****             
1820:Generated_Source\PSoC4/BLE_1_eventHandler.c ****             if((CYBLE_STATE_CONNECTED != CyBle_GetState()) && ((cyBle_eventHandlerFlag & CYBLE_CALL
 524              		.loc 1 1820 0
 525 01b6 3C4B     		ldr	r3, .L43+28
 526 01b8 1B78     		ldrb	r3, [r3]
 527 01ba 022B     		cmp	r3, #2
 528 01bc 54D0     		beq	.L16
 529              		.loc 1 1820 0 is_stmt 0 discriminator 1
 530 01be 334A     		ldr	r2, .L43
 531 01c0 1278     		ldrb	r2, [r2]
 532 01c2 D207     		lsls	r2, r2, #31
 533 01c4 50D5     		bpl	.L16
1821:Generated_Source\PSoC4/BLE_1_eventHandler.c ****             {
1822:Generated_Source\PSoC4/BLE_1_eventHandler.c ****                 /* After CyBle_GappStartAdvertisement first event indicates that advertising has be
1823:Generated_Source\PSoC4/BLE_1_eventHandler.c ****                 if(0u != (cyBle_eventHandlerFlag & CYBLE_START_FLAG))
 534              		.loc 1 1823 0 is_stmt 1
 535 01c6 314A     		ldr	r2, .L43
 536 01c8 1278     		ldrb	r2, [r2]
 537 01ca 5207     		lsls	r2, r2, #29
 538 01cc 08D5     		bpl	.L39
1824:Generated_Source\PSoC4/BLE_1_eventHandler.c ****                 {
1825:Generated_Source\PSoC4/BLE_1_eventHandler.c ****                     CyBle_SetState(CYBLE_STATE_ADVERTISING);
 539              		.loc 1 1825 0
 540 01ce 0322     		movs	r2, #3
 541 01d0 354B     		ldr	r3, .L43+28
 542 01d2 1A70     		strb	r2, [r3]
1826:Generated_Source\PSoC4/BLE_1_eventHandler.c ****                     cyBle_eventHandlerFlag &= (uint8)~CYBLE_START_FLAG;
 543              		.loc 1 1826 0
 544 01d4 2D4A     		ldr	r2, .L43
 545 01d6 1378     		ldrb	r3, [r2]
 546 01d8 0421     		movs	r1, #4
 547 01da 8B43     		bics	r3, r1
 548 01dc 1370     		strb	r3, [r2]
 549 01de 43E0     		b	.L16
 550              	.L39:
1827:Generated_Source\PSoC4/BLE_1_eventHandler.c ****                 }
ARM GAS  C:\Users\ADMINI~1\AppData\Local\Temp\ccMaTind.s 			page 43


1828:Generated_Source\PSoC4/BLE_1_eventHandler.c ****                 /* When application initiated stop advertisement */
1829:Generated_Source\PSoC4/BLE_1_eventHandler.c ****                 else if(0u != (cyBle_eventHandlerFlag & CYBLE_STOP_FLAG))
 551              		.loc 1 1829 0
 552 01e0 2A4A     		ldr	r2, .L43
 553 01e2 1278     		ldrb	r2, [r2]
 554 01e4 1207     		lsls	r2, r2, #28
 555 01e6 08D5     		bpl	.L40
1830:Generated_Source\PSoC4/BLE_1_eventHandler.c ****                 {
1831:Generated_Source\PSoC4/BLE_1_eventHandler.c ****                     CyBle_SetState(CYBLE_STATE_DISCONNECTED);  
 556              		.loc 1 1831 0
 557 01e8 0422     		movs	r2, #4
 558 01ea 2F4B     		ldr	r3, .L43+28
 559 01ec 1A70     		strb	r2, [r3]
1832:Generated_Source\PSoC4/BLE_1_eventHandler.c ****                     cyBle_eventHandlerFlag &= (uint8)~CYBLE_STOP_FLAG;
 560              		.loc 1 1832 0
 561 01ee 274A     		ldr	r2, .L43
 562 01f0 1378     		ldrb	r3, [r2]
 563 01f2 0821     		movs	r1, #8
 564 01f4 8B43     		bics	r3, r1
 565 01f6 1370     		strb	r3, [r2]
 566 01f8 36E0     		b	.L16
 567              	.L40:
1833:Generated_Source\PSoC4/BLE_1_eventHandler.c ****                 }
1834:Generated_Source\PSoC4/BLE_1_eventHandler.c ****                 else /* Following event indicates that advertising has been stopped */
1835:Generated_Source\PSoC4/BLE_1_eventHandler.c ****                 {
1836:Generated_Source\PSoC4/BLE_1_eventHandler.c ****                     if(CyBle_GetState() == CYBLE_STATE_ADVERTISING)
 568              		.loc 1 1836 0
 569 01fa 032B     		cmp	r3, #3
 570 01fc 34D1     		bne	.L16
1837:Generated_Source\PSoC4/BLE_1_eventHandler.c ****                     {
1838:Generated_Source\PSoC4/BLE_1_eventHandler.c ****                         CyBle_SetState(CYBLE_STATE_DISCONNECTED);
 571              		.loc 1 1838 0
 572 01fe 0422     		movs	r2, #4
 573 0200 294B     		ldr	r3, .L43+28
 574 0202 1A70     		strb	r2, [r3]
 575 0204 30E0     		b	.L16
 576              	.L28:
1839:Generated_Source\PSoC4/BLE_1_eventHandler.c ****                     #if ((CYBLE_SLOW_ADV_ENABLED != 0u) && (CYBLE_FAST_ADV_TIMEOUT != 0u))
1840:Generated_Source\PSoC4/BLE_1_eventHandler.c ****                         if(cyBle_advertisingIntervalType == CYBLE_ADVERTISING_FAST)
1841:Generated_Source\PSoC4/BLE_1_eventHandler.c ****                         {
1842:Generated_Source\PSoC4/BLE_1_eventHandler.c ****                             /* When fast advertising time out occur: Start slow advertising */
1843:Generated_Source\PSoC4/BLE_1_eventHandler.c ****                             if(CyBle_GappStartAdvertisement(CYBLE_ADVERTISING_SLOW) == CYBLE_ERROR_
1844:Generated_Source\PSoC4/BLE_1_eventHandler.c ****                             {
1845:Generated_Source\PSoC4/BLE_1_eventHandler.c ****                                 CyBle_SetState(CYBLE_STATE_ADVERTISING);
1846:Generated_Source\PSoC4/BLE_1_eventHandler.c ****                             }
1847:Generated_Source\PSoC4/BLE_1_eventHandler.c ****                         }
1848:Generated_Source\PSoC4/BLE_1_eventHandler.c ****                     #endif /* CYBLE_SLOW_ADV_ENABLED */
1849:Generated_Source\PSoC4/BLE_1_eventHandler.c ****                     }
1850:Generated_Source\PSoC4/BLE_1_eventHandler.c ****                 }
1851:Generated_Source\PSoC4/BLE_1_eventHandler.c ****             }
1852:Generated_Source\PSoC4/BLE_1_eventHandler.c ****             break;
1853:Generated_Source\PSoC4/BLE_1_eventHandler.c ****         #endif /* CYBLE_GAP_ROLE_PERIPHERAL || CYBLE_GAP_ROLE_BROADCASTER */
1854:Generated_Source\PSoC4/BLE_1_eventHandler.c ****         
1855:Generated_Source\PSoC4/BLE_1_eventHandler.c ****         #if(CYBLE_GAP_ROLE_CENTRAL || CYBLE_GAP_ROLE_OBSERVER)    
1856:Generated_Source\PSoC4/BLE_1_eventHandler.c ****         case CYBLE_EVT_GAPC_SCAN_START_STOP:
1857:Generated_Source\PSoC4/BLE_1_eventHandler.c ****             #ifdef CYBLE_CPS_CLIENT
1858:Generated_Source\PSoC4/BLE_1_eventHandler.c ****                 CyBle_CpscScanStartStopEventHandler();
ARM GAS  C:\Users\ADMINI~1\AppData\Local\Temp\ccMaTind.s 			page 44


1859:Generated_Source\PSoC4/BLE_1_eventHandler.c ****             #endif /* CYBLE_CPS_CLIENT */
1860:Generated_Source\PSoC4/BLE_1_eventHandler.c ****             
1861:Generated_Source\PSoC4/BLE_1_eventHandler.c ****             if((CYBLE_STATE_CONNECTED != CyBle_GetState()) && ((cyBle_eventHandlerFlag & CYBLE_CALL
1862:Generated_Source\PSoC4/BLE_1_eventHandler.c ****             {
1863:Generated_Source\PSoC4/BLE_1_eventHandler.c ****                 /* After CyBle_GapcStartScan first event indicates that scanning has been started *
1864:Generated_Source\PSoC4/BLE_1_eventHandler.c ****                 if(0u != (cyBle_eventHandlerFlag & CYBLE_START_FLAG))
1865:Generated_Source\PSoC4/BLE_1_eventHandler.c ****                 {
1866:Generated_Source\PSoC4/BLE_1_eventHandler.c ****                     CyBle_SetState(CYBLE_STATE_SCANNING);
1867:Generated_Source\PSoC4/BLE_1_eventHandler.c ****                     cyBle_eventHandlerFlag &= (uint8)~CYBLE_START_FLAG;
1868:Generated_Source\PSoC4/BLE_1_eventHandler.c ****                 }
1869:Generated_Source\PSoC4/BLE_1_eventHandler.c ****                 /* When application initiated stop scanning */
1870:Generated_Source\PSoC4/BLE_1_eventHandler.c ****                 else if(0u != (cyBle_eventHandlerFlag & CYBLE_STOP_FLAG))
1871:Generated_Source\PSoC4/BLE_1_eventHandler.c ****                 {
1872:Generated_Source\PSoC4/BLE_1_eventHandler.c ****                     CyBle_SetState(CYBLE_STATE_DISCONNECTED);  
1873:Generated_Source\PSoC4/BLE_1_eventHandler.c ****                     cyBle_eventHandlerFlag &= (uint8)~CYBLE_STOP_FLAG;
1874:Generated_Source\PSoC4/BLE_1_eventHandler.c ****                 }
1875:Generated_Source\PSoC4/BLE_1_eventHandler.c ****                 else /* Following event indicates that scanning has been stopped by stack */
1876:Generated_Source\PSoC4/BLE_1_eventHandler.c ****                 {
1877:Generated_Source\PSoC4/BLE_1_eventHandler.c ****                     if(CyBle_GetState() == CYBLE_STATE_SCANNING)
1878:Generated_Source\PSoC4/BLE_1_eventHandler.c ****                     {
1879:Generated_Source\PSoC4/BLE_1_eventHandler.c ****                         CyBle_SetState(CYBLE_STATE_DISCONNECTED);  
1880:Generated_Source\PSoC4/BLE_1_eventHandler.c ****                     #if ((CYBLE_SLOW_SCAN_ENABLED != 0u) && (CYBLE_FAST_SCAN_TIMEOUT != 0u))
1881:Generated_Source\PSoC4/BLE_1_eventHandler.c ****                         if(cyBle_scanningIntervalType == CYBLE_SCANNING_FAST)
1882:Generated_Source\PSoC4/BLE_1_eventHandler.c ****                         {
1883:Generated_Source\PSoC4/BLE_1_eventHandler.c ****                             /* When fast scanning time out occur: Start slow scanning */
1884:Generated_Source\PSoC4/BLE_1_eventHandler.c ****                             if(CyBle_GapcStartScan(CYBLE_SCANNING_SLOW) == CYBLE_ERROR_OK)
1885:Generated_Source\PSoC4/BLE_1_eventHandler.c ****                             {
1886:Generated_Source\PSoC4/BLE_1_eventHandler.c ****                                 CyBle_SetState(CYBLE_STATE_SCANNING);
1887:Generated_Source\PSoC4/BLE_1_eventHandler.c ****                             }
1888:Generated_Source\PSoC4/BLE_1_eventHandler.c ****                         }
1889:Generated_Source\PSoC4/BLE_1_eventHandler.c ****                     #endif /* CYBLE_SLOW_SCAN_ENABLED */
1890:Generated_Source\PSoC4/BLE_1_eventHandler.c ****                     }
1891:Generated_Source\PSoC4/BLE_1_eventHandler.c ****                 }
1892:Generated_Source\PSoC4/BLE_1_eventHandler.c ****             }
1893:Generated_Source\PSoC4/BLE_1_eventHandler.c ****             break;
1894:Generated_Source\PSoC4/BLE_1_eventHandler.c ****         #endif /* CYBLE_GAP_ROLE_CENTRAL || CYBLE_GAP_ROLE_OBSERVER */
1895:Generated_Source\PSoC4/BLE_1_eventHandler.c **** 
1896:Generated_Source\PSoC4/BLE_1_eventHandler.c ****         /**********************************************************
1897:Generated_Source\PSoC4/BLE_1_eventHandler.c ****         * L2AP events 
1898:Generated_Source\PSoC4/BLE_1_eventHandler.c ****         ************************************************************/
1899:Generated_Source\PSoC4/BLE_1_eventHandler.c ****         case CYBLE_EVT_L2CAP_CONN_PARAM_UPDATE_RSP:
1900:Generated_Source\PSoC4/BLE_1_eventHandler.c ****             CyBle_L2Cap_ConnParamUpdateRspEventHandler(*(uint16 *)eventParam);
1901:Generated_Source\PSoC4/BLE_1_eventHandler.c ****             break;
1902:Generated_Source\PSoC4/BLE_1_eventHandler.c ****         
1903:Generated_Source\PSoC4/BLE_1_eventHandler.c ****         /**********************************************************
1904:Generated_Source\PSoC4/BLE_1_eventHandler.c ****         * GATT events
1905:Generated_Source\PSoC4/BLE_1_eventHandler.c ****         ************************************************************/        
1906:Generated_Source\PSoC4/BLE_1_eventHandler.c ****         case CYBLE_EVT_GATT_CONNECT_IND:
1907:Generated_Source\PSoC4/BLE_1_eventHandler.c ****             cyBle_connHandle = *(CYBLE_CONN_HANDLE_T *)eventParam;
 577              		.loc 1 1907 0
 578 0206 2D4E     		ldr	r6, .L43+48
 579 0208 0222     		movs	r2, #2
 580 020a 2900     		movs	r1, r5
 581 020c 3000     		movs	r0, r6
 582              	.LVL43:
 583 020e FFF7FEFF 		bl	memcpy
 584              	.LVL44:
ARM GAS  C:\Users\ADMINI~1\AppData\Local\Temp\ccMaTind.s 			page 45


1908:Generated_Source\PSoC4/BLE_1_eventHandler.c ****             cyBle_busyStatus = CYBLE_STACK_STATE_FREE;
 585              		.loc 1 1908 0
 586 0212 0022     		movs	r2, #0
 587 0214 254B     		ldr	r3, .L43+32
 588 0216 1A70     		strb	r2, [r3]
1909:Generated_Source\PSoC4/BLE_1_eventHandler.c ****             
1910:Generated_Source\PSoC4/BLE_1_eventHandler.c ****         #if((CYBLE_GATT_ROLE_SERVER) && (CYBLE_GATT_DB_CCCD_COUNT != 0u) && \
1911:Generated_Source\PSoC4/BLE_1_eventHandler.c ****             (CYBLE_BONDING_REQUIREMENT == CYBLE_BONDING_YES))
1912:Generated_Source\PSoC4/BLE_1_eventHandler.c ****             /* Init CCCD values in RAM when bonding is enabled */
1913:Generated_Source\PSoC4/BLE_1_eventHandler.c ****         	(void) memcpy (cyBle_attValuesCCCD, cyBle_flashStorage.attValuesCCCDFlashMemory[cyBle_conn
 589              		.loc 1 1913 0
 590 0218 3178     		ldrb	r1, [r6]
 591 021a 3D31     		adds	r1, r1, #61
 592 021c FF31     		adds	r1, r1, #255
 593 021e 4900     		lsls	r1, r1, #1
 594 0220 294B     		ldr	r3, .L43+60
 595 0222 5918     		adds	r1, r3, r1
 596 0224 0131     		adds	r1, r1, #1
 597 0226 0232     		adds	r2, r2, #2
 598 0228 2848     		ldr	r0, .L43+64
 599 022a FFF7FEFF 		bl	memcpy
 600              	.LVL45:
1914:Generated_Source\PSoC4/BLE_1_eventHandler.c ****                             CYBLE_GATT_DB_CCCD_COUNT);
1915:Generated_Source\PSoC4/BLE_1_eventHandler.c ****         #endif /* CYBLE_GATT_ROLE_SERVER && (CYBLE_BONDING_REQUIREMENT == CYBLE_BONDING_YES) */
1916:Generated_Source\PSoC4/BLE_1_eventHandler.c ****         
1917:Generated_Source\PSoC4/BLE_1_eventHandler.c ****         #if (CYBLE_GATT_ROLE_CLIENT)
1918:Generated_Source\PSoC4/BLE_1_eventHandler.c ****             CyBle_SetClientState(CYBLE_CLIENT_STATE_CONNECTED);
1919:Generated_Source\PSoC4/BLE_1_eventHandler.c ****         #endif /* CYBLE_GATT_ROLE_CLIENT */
1920:Generated_Source\PSoC4/BLE_1_eventHandler.c ****         
1921:Generated_Source\PSoC4/BLE_1_eventHandler.c ****             CyBle_GattConnectReqHandler();
1922:Generated_Source\PSoC4/BLE_1_eventHandler.c ****             break;
 601              		.loc 1 1922 0
 602 022e 1BE0     		b	.L16
 603              	.LVL46:
 604              	.L29:
1923:Generated_Source\PSoC4/BLE_1_eventHandler.c **** 
1924:Generated_Source\PSoC4/BLE_1_eventHandler.c ****         case CYBLE_EVT_GATT_DISCONNECT_IND:
1925:Generated_Source\PSoC4/BLE_1_eventHandler.c ****             CyBle_GattDisconnectEventHandler();
 605              		.loc 1 1925 0
 606 0230 FFF7FEFF 		bl	CyBle_GattDisconnectEventHandler
 607              	.LVL47:
1926:Generated_Source\PSoC4/BLE_1_eventHandler.c ****             break;
 608              		.loc 1 1926 0
 609 0234 18E0     		b	.L16
 610              	.LVL48:
 611              	.L26:
 612              	.LBB9:
1927:Generated_Source\PSoC4/BLE_1_eventHandler.c **** 
1928:Generated_Source\PSoC4/BLE_1_eventHandler.c ****     #if((CYBLE_GATT_ROLE_SERVER) || (CYBLE_GATT_ROLE_CLIENT))
1929:Generated_Source\PSoC4/BLE_1_eventHandler.c ****         case CYBLE_EVT_GATTS_XCNHG_MTU_REQ:
1930:Generated_Source\PSoC4/BLE_1_eventHandler.c ****             {
1931:Generated_Source\PSoC4/BLE_1_eventHandler.c ****                 uint16 cyBle_mtuSize;
1932:Generated_Source\PSoC4/BLE_1_eventHandler.c ****                 if(CYBLE_GATT_MTU > ((CYBLE_GATT_XCHG_MTU_PARAM_T *)eventParam)->mtu)
 613              		.loc 1 1932 0
 614 0236 6988     		ldrh	r1, [r5, #2]
 615 0238 1629     		cmp	r1, #22
 616 023a 00D9     		bls	.L41
ARM GAS  C:\Users\ADMINI~1\AppData\Local\Temp\ccMaTind.s 			page 46


1933:Generated_Source\PSoC4/BLE_1_eventHandler.c ****                 {
1934:Generated_Source\PSoC4/BLE_1_eventHandler.c ****                     cyBle_mtuSize = ((CYBLE_GATT_XCHG_MTU_PARAM_T *)eventParam)->mtu;
1935:Generated_Source\PSoC4/BLE_1_eventHandler.c ****                 }
1936:Generated_Source\PSoC4/BLE_1_eventHandler.c ****                 else
1937:Generated_Source\PSoC4/BLE_1_eventHandler.c ****                 {
1938:Generated_Source\PSoC4/BLE_1_eventHandler.c ****                     cyBle_mtuSize = CYBLE_GATT_MTU;
 617              		.loc 1 1938 0
 618 023c 1721     		movs	r1, #23
 619              	.L41:
 620              	.LVL49:
1939:Generated_Source\PSoC4/BLE_1_eventHandler.c ****                 }
1940:Generated_Source\PSoC4/BLE_1_eventHandler.c ****                 (void)CyBle_GattsExchangeMtuRsp(((CYBLE_GATT_XCHG_MTU_PARAM_T *)eventParam)->connHa
 621              		.loc 1 1940 0
 622 023e 2888     		ldrh	r0, [r5]
 623              	.LVL50:
 624 0240 FFF7FEFF 		bl	CyBle_GattsExchangeMtuRsp
 625              	.LVL51:
 626              	.LBE9:
1941:Generated_Source\PSoC4/BLE_1_eventHandler.c ****             }
1942:Generated_Source\PSoC4/BLE_1_eventHandler.c ****             break;
 627              		.loc 1 1942 0
 628 0244 10E0     		b	.L16
 629              	.LVL52:
 630              	.L33:
1943:Generated_Source\PSoC4/BLE_1_eventHandler.c ****     #endif /* CYBLE_GATT_ROLE_SERVER || CYBLE_GATT_ROLE_CLIENT */
1944:Generated_Source\PSoC4/BLE_1_eventHandler.c ****     
1945:Generated_Source\PSoC4/BLE_1_eventHandler.c ****     #if (CYBLE_GATT_ROLE_CLIENT)
1946:Generated_Source\PSoC4/BLE_1_eventHandler.c ****         case CYBLE_EVT_GAPC_SCAN_PROGRESS_RESULT:
1947:Generated_Source\PSoC4/BLE_1_eventHandler.c ****         #ifdef CYBLE_CPS_CLIENT
1948:Generated_Source\PSoC4/BLE_1_eventHandler.c ****             CyBle_CpscScanProcessEventHandler((CYBLE_GAPC_ADV_REPORT_T *)eventParam);
1949:Generated_Source\PSoC4/BLE_1_eventHandler.c ****         #endif /* CYBLE_CPS_CLIENT */
1950:Generated_Source\PSoC4/BLE_1_eventHandler.c ****             break;
1951:Generated_Source\PSoC4/BLE_1_eventHandler.c ****     #endif /* CYBLE_GATT_ROLE_CLIENT */
1952:Generated_Source\PSoC4/BLE_1_eventHandler.c **** 
1953:Generated_Source\PSoC4/BLE_1_eventHandler.c ****     #if(CYBLE_GATT_ROLE_SERVER)
1954:Generated_Source\PSoC4/BLE_1_eventHandler.c ****         case CYBLE_EVT_GATTS_WRITE_REQ:
1955:Generated_Source\PSoC4/BLE_1_eventHandler.c ****             CyBle_WriteReqHandler((CYBLE_GATTS_WRITE_REQ_PARAM_T *)eventParam);
 631              		.loc 1 1955 0
 632 0246 2800     		movs	r0, r5
 633              	.LVL53:
 634 0248 FFF7FEFF 		bl	CyBle_WriteReqHandler
 635              	.LVL54:
1956:Generated_Source\PSoC4/BLE_1_eventHandler.c ****             break;
 636              		.loc 1 1956 0
 637 024c 0CE0     		b	.L16
 638              	.LVL55:
 639              	.L31:
1957:Generated_Source\PSoC4/BLE_1_eventHandler.c **** 
1958:Generated_Source\PSoC4/BLE_1_eventHandler.c ****         case CYBLE_EVT_GATTS_WRITE_CMD_REQ:
1959:Generated_Source\PSoC4/BLE_1_eventHandler.c ****         #ifdef CYBLE_AIOS_SERVER
1960:Generated_Source\PSoC4/BLE_1_eventHandler.c ****             if((cyBle_eventHandlerFlag & CYBLE_CALLBACK) != 0u)
1961:Generated_Source\PSoC4/BLE_1_eventHandler.c ****             {
1962:Generated_Source\PSoC4/BLE_1_eventHandler.c ****                 (void)CyBle_AiossWriteEventHandler((CYBLE_GATTS_WRITE_REQ_PARAM_T *)eventParam);
1963:Generated_Source\PSoC4/BLE_1_eventHandler.c ****             }
1964:Generated_Source\PSoC4/BLE_1_eventHandler.c ****         #endif /* CYBLE_AIOS_SERVER */
1965:Generated_Source\PSoC4/BLE_1_eventHandler.c ****         #ifdef CYBLE_IAS_SERVER
1966:Generated_Source\PSoC4/BLE_1_eventHandler.c ****             if((cyBle_eventHandlerFlag & CYBLE_CALLBACK) != 0u)
ARM GAS  C:\Users\ADMINI~1\AppData\Local\Temp\ccMaTind.s 			page 47


 640              		.loc 1 1966 0
 641 024e 0F4B     		ldr	r3, .L43
 642 0250 1B78     		ldrb	r3, [r3]
 643 0252 DB07     		lsls	r3, r3, #31
 644 0254 08D5     		bpl	.L16
1967:Generated_Source\PSoC4/BLE_1_eventHandler.c ****             {
1968:Generated_Source\PSoC4/BLE_1_eventHandler.c ****                 (void)CyBle_IassWriteCmdEventHandler((CYBLE_GATTS_WRITE_REQ_PARAM_T *)eventParam);
 645              		.loc 1 1968 0
 646 0256 2800     		movs	r0, r5
 647              	.LVL56:
 648 0258 FFF7FEFF 		bl	CyBle_IassWriteCmdEventHandler
 649              	.LVL57:
 650 025c 04E0     		b	.L16
 651              	.LVL58:
 652              	.L32:
1969:Generated_Source\PSoC4/BLE_1_eventHandler.c ****             }
1970:Generated_Source\PSoC4/BLE_1_eventHandler.c ****         #endif /* CYBLE_IAS_SERVER */
1971:Generated_Source\PSoC4/BLE_1_eventHandler.c ****         #ifdef CYBLE_IPS_SERVER
1972:Generated_Source\PSoC4/BLE_1_eventHandler.c ****             if((cyBle_eventHandlerFlag & CYBLE_CALLBACK) != 0u)
1973:Generated_Source\PSoC4/BLE_1_eventHandler.c ****             {
1974:Generated_Source\PSoC4/BLE_1_eventHandler.c ****                 (void)CyBle_IpssWriteCmdEventHandler((CYBLE_GATTS_WRITE_REQ_PARAM_T *)eventParam);
1975:Generated_Source\PSoC4/BLE_1_eventHandler.c ****             }
1976:Generated_Source\PSoC4/BLE_1_eventHandler.c ****         #endif /* CYBLE_IPS_SERVER */
1977:Generated_Source\PSoC4/BLE_1_eventHandler.c ****         #ifdef CYBLE_HIDS_SERVER
1978:Generated_Source\PSoC4/BLE_1_eventHandler.c ****             if((cyBle_eventHandlerFlag & CYBLE_CALLBACK) != 0u)
1979:Generated_Source\PSoC4/BLE_1_eventHandler.c ****             {
1980:Generated_Source\PSoC4/BLE_1_eventHandler.c ****                 (void)CyBle_HidssWriteEventHandler((CYBLE_GATTS_WRITE_REQ_PARAM_T *)eventParam);
1981:Generated_Source\PSoC4/BLE_1_eventHandler.c ****             }
1982:Generated_Source\PSoC4/BLE_1_eventHandler.c ****         #endif /* CYBLE_HIDS_SERVER */
1983:Generated_Source\PSoC4/BLE_1_eventHandler.c ****         #ifdef CYBLE_PASS_SERVER
1984:Generated_Source\PSoC4/BLE_1_eventHandler.c ****             if((cyBle_eventHandlerFlag & CYBLE_CALLBACK) != 0u)
1985:Generated_Source\PSoC4/BLE_1_eventHandler.c ****             {
1986:Generated_Source\PSoC4/BLE_1_eventHandler.c ****                 (void)CyBle_PasssWriteCmdEventHandler((CYBLE_GATTS_WRITE_REQ_PARAM_T *)eventParam);
1987:Generated_Source\PSoC4/BLE_1_eventHandler.c ****             }
1988:Generated_Source\PSoC4/BLE_1_eventHandler.c ****         #endif /* CYBLE_PASS_SERVER */
1989:Generated_Source\PSoC4/BLE_1_eventHandler.c ****         #ifdef CYBLE_RTUS_SERVER
1990:Generated_Source\PSoC4/BLE_1_eventHandler.c ****             if((cyBle_eventHandlerFlag & CYBLE_CALLBACK) != 0u)
1991:Generated_Source\PSoC4/BLE_1_eventHandler.c ****             {
1992:Generated_Source\PSoC4/BLE_1_eventHandler.c ****                 (void)CyBle_RtussWriteCmdEventHandler((CYBLE_GATTS_WRITE_REQ_PARAM_T *)eventParam);
1993:Generated_Source\PSoC4/BLE_1_eventHandler.c ****             }
1994:Generated_Source\PSoC4/BLE_1_eventHandler.c ****         #endif /* CYBLE_RTUS_SERVER */
1995:Generated_Source\PSoC4/BLE_1_eventHandler.c ****         #ifdef CYBLE_SCPS_SERVER
1996:Generated_Source\PSoC4/BLE_1_eventHandler.c ****             if((cyBle_eventHandlerFlag & CYBLE_CALLBACK) != 0u)
1997:Generated_Source\PSoC4/BLE_1_eventHandler.c ****             {
1998:Generated_Source\PSoC4/BLE_1_eventHandler.c ****                 (void)CyBle_ScpssWriteEventHandler((CYBLE_GATTS_WRITE_REQ_PARAM_T *)eventParam);
1999:Generated_Source\PSoC4/BLE_1_eventHandler.c ****             }
2000:Generated_Source\PSoC4/BLE_1_eventHandler.c ****         #endif /* CYBLE_SCPS_SERVER */
2001:Generated_Source\PSoC4/BLE_1_eventHandler.c ****             break;
2002:Generated_Source\PSoC4/BLE_1_eventHandler.c ****         
2003:Generated_Source\PSoC4/BLE_1_eventHandler.c ****         case CYBLE_EVT_GATTS_PREP_WRITE_REQ:
2004:Generated_Source\PSoC4/BLE_1_eventHandler.c ****         #ifdef CYBLE_BMS_SERVER
2005:Generated_Source\PSoC4/BLE_1_eventHandler.c ****             CyBle_BmssPrepareWriteRequestEventHandler((CYBLE_GATTS_PREP_WRITE_REQ_PARAM_T *)eventPa
2006:Generated_Source\PSoC4/BLE_1_eventHandler.c ****         #endif /* CYBLE_BMS_SERVER */
2007:Generated_Source\PSoC4/BLE_1_eventHandler.c ****         #ifdef CYBLE_BTS_SERVER
2008:Generated_Source\PSoC4/BLE_1_eventHandler.c ****             if((cyBle_eventHandlerFlag & CYBLE_CALLBACK) != 0u)
2009:Generated_Source\PSoC4/BLE_1_eventHandler.c ****             {
2010:Generated_Source\PSoC4/BLE_1_eventHandler.c ****                 CyBle_BtssPrepareWriteRequestEventHandler((CYBLE_GATTS_PREP_WRITE_REQ_PARAM_T *)eve
ARM GAS  C:\Users\ADMINI~1\AppData\Local\Temp\ccMaTind.s 			page 48


2011:Generated_Source\PSoC4/BLE_1_eventHandler.c ****             }
2012:Generated_Source\PSoC4/BLE_1_eventHandler.c ****         #endif /* CYBLE_BTS_SERVER */
2013:Generated_Source\PSoC4/BLE_1_eventHandler.c ****         #ifdef CYBLE_ESS_SERVER
2014:Generated_Source\PSoC4/BLE_1_eventHandler.c ****             if((cyBle_eventHandlerFlag & CYBLE_CALLBACK) != 0u)
2015:Generated_Source\PSoC4/BLE_1_eventHandler.c ****             {
2016:Generated_Source\PSoC4/BLE_1_eventHandler.c ****                 CyBle_EsssPrepareWriteRequestEventHandler((CYBLE_GATTS_PREP_WRITE_REQ_PARAM_T *)eve
2017:Generated_Source\PSoC4/BLE_1_eventHandler.c ****             }
2018:Generated_Source\PSoC4/BLE_1_eventHandler.c ****         #endif /* CYBLE_ESS_SERVER */
2019:Generated_Source\PSoC4/BLE_1_eventHandler.c ****         #ifdef CYBLE_HPS_SERVER
2020:Generated_Source\PSoC4/BLE_1_eventHandler.c ****             if((cyBle_eventHandlerFlag & CYBLE_CALLBACK) != 0u)
2021:Generated_Source\PSoC4/BLE_1_eventHandler.c ****             {
2022:Generated_Source\PSoC4/BLE_1_eventHandler.c ****                 CyBle_HpssPrepareWriteRequestEventHandler((CYBLE_GATTS_PREP_WRITE_REQ_PARAM_T *)eve
2023:Generated_Source\PSoC4/BLE_1_eventHandler.c ****             }
2024:Generated_Source\PSoC4/BLE_1_eventHandler.c ****         #endif /* CYBLE_HPS_SERVER */
2025:Generated_Source\PSoC4/BLE_1_eventHandler.c ****         #ifdef CYBLE_IPS_SERVER
2026:Generated_Source\PSoC4/BLE_1_eventHandler.c ****             if((cyBle_eventHandlerFlag & CYBLE_CALLBACK) != 0u)
2027:Generated_Source\PSoC4/BLE_1_eventHandler.c ****             {
2028:Generated_Source\PSoC4/BLE_1_eventHandler.c ****                 CyBle_IpssPrepareWriteRequestEventHandler((CYBLE_GATTS_PREP_WRITE_REQ_PARAM_T *)eve
2029:Generated_Source\PSoC4/BLE_1_eventHandler.c ****             }
2030:Generated_Source\PSoC4/BLE_1_eventHandler.c ****         #endif /* CYBLE_IPS_SERVER */
2031:Generated_Source\PSoC4/BLE_1_eventHandler.c ****         #ifdef CYBLE_UDS_SERVER
2032:Generated_Source\PSoC4/BLE_1_eventHandler.c ****             if((cyBle_eventHandlerFlag & CYBLE_CALLBACK) != 0u)
2033:Generated_Source\PSoC4/BLE_1_eventHandler.c ****             {
2034:Generated_Source\PSoC4/BLE_1_eventHandler.c ****                 CyBle_UdssPrepareWriteRequestEventHandler((CYBLE_GATTS_PREP_WRITE_REQ_PARAM_T *)eve
2035:Generated_Source\PSoC4/BLE_1_eventHandler.c ****             }
2036:Generated_Source\PSoC4/BLE_1_eventHandler.c ****         #endif /* CYBLE_UDS_SERVER */
2037:Generated_Source\PSoC4/BLE_1_eventHandler.c ****             break;
2038:Generated_Source\PSoC4/BLE_1_eventHandler.c **** 
2039:Generated_Source\PSoC4/BLE_1_eventHandler.c ****         case CYBLE_EVT_GATTS_EXEC_WRITE_REQ:
2040:Generated_Source\PSoC4/BLE_1_eventHandler.c ****         #ifdef CYBLE_BMS_SERVER
2041:Generated_Source\PSoC4/BLE_1_eventHandler.c ****             CyBle_BmssExecuteWriteRequestEventHandler((CYBLE_GATTS_EXEC_WRITE_REQ_T *)eventParam);
2042:Generated_Source\PSoC4/BLE_1_eventHandler.c ****         #endif /* CYBLE_BMS_SERVER */
2043:Generated_Source\PSoC4/BLE_1_eventHandler.c ****         #ifdef CYBLE_BTS_SERVER
2044:Generated_Source\PSoC4/BLE_1_eventHandler.c ****             CyBle_BtssExecuteWriteRequestEventHandler((CYBLE_GATTS_EXEC_WRITE_REQ_T *)eventParam);
2045:Generated_Source\PSoC4/BLE_1_eventHandler.c ****         #endif /* CYBLE_BTS_SERVER */
2046:Generated_Source\PSoC4/BLE_1_eventHandler.c ****         #ifdef CYBLE_ESS_SERVER
2047:Generated_Source\PSoC4/BLE_1_eventHandler.c ****             CyBle_EsssExecuteWriteRequestEventHandler((CYBLE_GATTS_EXEC_WRITE_REQ_T *)eventParam);
2048:Generated_Source\PSoC4/BLE_1_eventHandler.c ****         #endif /* CYBLE_ESS_SERVER */
2049:Generated_Source\PSoC4/BLE_1_eventHandler.c ****         #ifdef CYBLE_HPS_SERVER
2050:Generated_Source\PSoC4/BLE_1_eventHandler.c ****             CyBle_HpssExecuteWriteRequestEventHandler((CYBLE_GATTS_EXEC_WRITE_REQ_T *)eventParam);
2051:Generated_Source\PSoC4/BLE_1_eventHandler.c ****         #endif /* CYBLE_HPS_SERVER */
2052:Generated_Source\PSoC4/BLE_1_eventHandler.c ****         #ifdef CYBLE_IPS_SERVER
2053:Generated_Source\PSoC4/BLE_1_eventHandler.c ****             CyBle_IpssExecuteWriteRequestEventHandler((CYBLE_GATTS_EXEC_WRITE_REQ_T *)eventParam);
2054:Generated_Source\PSoC4/BLE_1_eventHandler.c ****         #endif /* CYBLE_IPS_SERVER */
2055:Generated_Source\PSoC4/BLE_1_eventHandler.c **** 		#ifdef CYBLE_UDS_SERVER
2056:Generated_Source\PSoC4/BLE_1_eventHandler.c ****             CyBle_UdssExecuteWriteRequestEventHandler((CYBLE_GATTS_EXEC_WRITE_REQ_T *)eventParam);
2057:Generated_Source\PSoC4/BLE_1_eventHandler.c ****         #endif /* CYBLE_UDS_SERVER */
2058:Generated_Source\PSoC4/BLE_1_eventHandler.c ****             break;
2059:Generated_Source\PSoC4/BLE_1_eventHandler.c ****         
2060:Generated_Source\PSoC4/BLE_1_eventHandler.c ****         case CYBLE_EVT_GATTS_HANDLE_VALUE_CNF:
2061:Generated_Source\PSoC4/BLE_1_eventHandler.c ****             CyBle_ValueConfirmation((CYBLE_CONN_HANDLE_T *)eventParam);
2062:Generated_Source\PSoC4/BLE_1_eventHandler.c ****             break;
2063:Generated_Source\PSoC4/BLE_1_eventHandler.c ****             
2064:Generated_Source\PSoC4/BLE_1_eventHandler.c ****         case CYBLE_EVT_GATTS_READ_CHAR_VAL_ACCESS_REQ:
2065:Generated_Source\PSoC4/BLE_1_eventHandler.c ****         #ifdef CYBLE_UDS_SERVER
2066:Generated_Source\PSoC4/BLE_1_eventHandler.c ****             CyBle_UdssReadRequestEventHandler((CYBLE_GATTS_CHAR_VAL_READ_REQ_T *)eventParam);
2067:Generated_Source\PSoC4/BLE_1_eventHandler.c ****         #endif /* CYBLE_UDS_SERVER */
ARM GAS  C:\Users\ADMINI~1\AppData\Local\Temp\ccMaTind.s 			page 49


2068:Generated_Source\PSoC4/BLE_1_eventHandler.c ****             break;
2069:Generated_Source\PSoC4/BLE_1_eventHandler.c ****             
2070:Generated_Source\PSoC4/BLE_1_eventHandler.c ****     #endif /* CYBLE_GATT_ROLE_SERVER */
2071:Generated_Source\PSoC4/BLE_1_eventHandler.c **** 
2072:Generated_Source\PSoC4/BLE_1_eventHandler.c ****     #if (CYBLE_GATT_ROLE_CLIENT)
2073:Generated_Source\PSoC4/BLE_1_eventHandler.c ****         
2074:Generated_Source\PSoC4/BLE_1_eventHandler.c ****         case CYBLE_EVT_GATTC_READ_BY_GROUP_TYPE_RSP:
2075:Generated_Source\PSoC4/BLE_1_eventHandler.c ****             CyBle_ReadByGroupEventHandler((CYBLE_GATTC_READ_BY_GRP_RSP_PARAM_T *)eventParam);
2076:Generated_Source\PSoC4/BLE_1_eventHandler.c ****             break;
2077:Generated_Source\PSoC4/BLE_1_eventHandler.c **** 
2078:Generated_Source\PSoC4/BLE_1_eventHandler.c ****         case CYBLE_EVT_GATTC_READ_BY_TYPE_RSP:
2079:Generated_Source\PSoC4/BLE_1_eventHandler.c ****             CyBle_ReadByTypeEventHandler((CYBLE_GATTC_READ_BY_TYPE_RSP_PARAM_T *)eventParam);
2080:Generated_Source\PSoC4/BLE_1_eventHandler.c ****             break;
2081:Generated_Source\PSoC4/BLE_1_eventHandler.c **** 
2082:Generated_Source\PSoC4/BLE_1_eventHandler.c ****         case CYBLE_EVT_GATTC_READ_BLOB_RSP:
2083:Generated_Source\PSoC4/BLE_1_eventHandler.c ****         #ifdef CYBLE_ESS_CLIENT
2084:Generated_Source\PSoC4/BLE_1_eventHandler.c ****             CyBle_EsscReadLongRespEventHandler((CYBLE_GATTC_READ_RSP_PARAM_T *)eventParam);
2085:Generated_Source\PSoC4/BLE_1_eventHandler.c ****         #endif /* CYBLE_ESS_CLIENT */
2086:Generated_Source\PSoC4/BLE_1_eventHandler.c ****         #ifdef CYBLE_HPS_CLIENT
2087:Generated_Source\PSoC4/BLE_1_eventHandler.c ****             CyBle_HpscReadLongRespEventHandler((CYBLE_GATTC_READ_RSP_PARAM_T *)eventParam);
2088:Generated_Source\PSoC4/BLE_1_eventHandler.c ****         #endif /* CYBLE_HPS_CLIENT */
2089:Generated_Source\PSoC4/BLE_1_eventHandler.c **** 		#ifdef CYBLE_IPS_CLIENT
2090:Generated_Source\PSoC4/BLE_1_eventHandler.c ****             CyBle_IpscReadLongRespEventHandler((CYBLE_GATTC_READ_RSP_PARAM_T *)eventParam);
2091:Generated_Source\PSoC4/BLE_1_eventHandler.c ****         #endif /* CYBLE_IPS_CLIENT */
2092:Generated_Source\PSoC4/BLE_1_eventHandler.c ****         #ifdef CYBLE_UDS_CLIENT
2093:Generated_Source\PSoC4/BLE_1_eventHandler.c ****             if((cyBle_eventHandlerFlag & CYBLE_CALLBACK) != 0u)
2094:Generated_Source\PSoC4/BLE_1_eventHandler.c ****             {
2095:Generated_Source\PSoC4/BLE_1_eventHandler.c ****                 CyBle_UdscReadLongRespEventHandler((CYBLE_GATTC_READ_RSP_PARAM_T *)eventParam);
2096:Generated_Source\PSoC4/BLE_1_eventHandler.c ****             }
2097:Generated_Source\PSoC4/BLE_1_eventHandler.c ****         #endif /* CYBLE_UDS_CLIENT */
2098:Generated_Source\PSoC4/BLE_1_eventHandler.c ****             break;
2099:Generated_Source\PSoC4/BLE_1_eventHandler.c ****         
2100:Generated_Source\PSoC4/BLE_1_eventHandler.c ****         case CYBLE_EVT_GATTC_LONG_PROCEDURE_END:
2101:Generated_Source\PSoC4/BLE_1_eventHandler.c ****             CyBle_LongProcedureEndEventHandler();
2102:Generated_Source\PSoC4/BLE_1_eventHandler.c ****             break;
2103:Generated_Source\PSoC4/BLE_1_eventHandler.c ****         
2104:Generated_Source\PSoC4/BLE_1_eventHandler.c ****         case CYBLE_EVT_GATTC_FIND_INFO_RSP:
2105:Generated_Source\PSoC4/BLE_1_eventHandler.c ****             CyBle_FindInfoEventHandler((CYBLE_GATTC_FIND_INFO_RSP_PARAM_T *)eventParam);
2106:Generated_Source\PSoC4/BLE_1_eventHandler.c ****             break;
2107:Generated_Source\PSoC4/BLE_1_eventHandler.c **** 
2108:Generated_Source\PSoC4/BLE_1_eventHandler.c ****         case CYBLE_EVT_GATTC_ERROR_RSP:
2109:Generated_Source\PSoC4/BLE_1_eventHandler.c ****             CyBle_ErrorResponseEventHandler((CYBLE_GATTC_ERR_RSP_PARAM_T *)eventParam);
2110:Generated_Source\PSoC4/BLE_1_eventHandler.c ****             break;
2111:Generated_Source\PSoC4/BLE_1_eventHandler.c **** 
2112:Generated_Source\PSoC4/BLE_1_eventHandler.c ****         case CYBLE_EVT_GATTC_HANDLE_VALUE_NTF:
2113:Generated_Source\PSoC4/BLE_1_eventHandler.c ****             CyBle_NotificationEventHandler((CYBLE_GATTC_HANDLE_VALUE_NTF_PARAM_T *)eventParam);
2114:Generated_Source\PSoC4/BLE_1_eventHandler.c ****             break;
2115:Generated_Source\PSoC4/BLE_1_eventHandler.c **** 
2116:Generated_Source\PSoC4/BLE_1_eventHandler.c ****         case CYBLE_EVT_GATTC_HANDLE_VALUE_IND:
2117:Generated_Source\PSoC4/BLE_1_eventHandler.c ****             CyBle_GattcIndicationEventHandler((CYBLE_GATTC_HANDLE_VALUE_IND_PARAM_T *)eventParam);
2118:Generated_Source\PSoC4/BLE_1_eventHandler.c ****             CyBle_IndicationEventHandler((CYBLE_GATTC_HANDLE_VALUE_IND_PARAM_T *)eventParam);
2119:Generated_Source\PSoC4/BLE_1_eventHandler.c ****         
2120:Generated_Source\PSoC4/BLE_1_eventHandler.c ****             /* Respond with a Handle Value Confirmation when request handled */
2121:Generated_Source\PSoC4/BLE_1_eventHandler.c ****             if((cyBle_eventHandlerFlag & CYBLE_CALLBACK) == 0u)
2122:Generated_Source\PSoC4/BLE_1_eventHandler.c ****             {
2123:Generated_Source\PSoC4/BLE_1_eventHandler.c ****                 (void)CyBle_GattcConfirmation(((CYBLE_GATTC_HANDLE_VALUE_IND_PARAM_T *)eventParam)-
2124:Generated_Source\PSoC4/BLE_1_eventHandler.c ****             }
ARM GAS  C:\Users\ADMINI~1\AppData\Local\Temp\ccMaTind.s 			page 50


2125:Generated_Source\PSoC4/BLE_1_eventHandler.c ****             break;
2126:Generated_Source\PSoC4/BLE_1_eventHandler.c ****         
2127:Generated_Source\PSoC4/BLE_1_eventHandler.c ****         case CYBLE_EVT_GATTC_READ_RSP:
2128:Generated_Source\PSoC4/BLE_1_eventHandler.c ****             CyBle_ReadResponseEventHandler((CYBLE_GATTC_READ_RSP_PARAM_T *)eventParam);
2129:Generated_Source\PSoC4/BLE_1_eventHandler.c ****             break;
2130:Generated_Source\PSoC4/BLE_1_eventHandler.c ****         
2131:Generated_Source\PSoC4/BLE_1_eventHandler.c ****         case CYBLE_EVT_GATTC_READ_MULTI_RSP:
2132:Generated_Source\PSoC4/BLE_1_eventHandler.c ****             CyBle_ReadMultipleResponseEventHandler((CYBLE_GATTC_READ_RSP_PARAM_T *)eventParam);
2133:Generated_Source\PSoC4/BLE_1_eventHandler.c ****             break;
2134:Generated_Source\PSoC4/BLE_1_eventHandler.c ****             
2135:Generated_Source\PSoC4/BLE_1_eventHandler.c ****         case CYBLE_EVT_GATTC_WRITE_RSP:
2136:Generated_Source\PSoC4/BLE_1_eventHandler.c ****             CyBle_GattcWriteResponseEventHandler((CYBLE_CONN_HANDLE_T *)eventParam);
2137:Generated_Source\PSoC4/BLE_1_eventHandler.c ****             break;
2138:Generated_Source\PSoC4/BLE_1_eventHandler.c ****             
2139:Generated_Source\PSoC4/BLE_1_eventHandler.c ****         case CYBLE_EVT_GATTC_EXEC_WRITE_RSP:
2140:Generated_Source\PSoC4/BLE_1_eventHandler.c ****         #ifdef CYBLE_BMS_CLIENT
2141:Generated_Source\PSoC4/BLE_1_eventHandler.c ****             CyBle_BmscExecuteWriteResponseEventHandler((CYBLE_GATTC_EXEC_WRITE_RSP_T *)eventParam);
2142:Generated_Source\PSoC4/BLE_1_eventHandler.c ****         #endif /* CYBLE_BMS_CLIENT */
2143:Generated_Source\PSoC4/BLE_1_eventHandler.c ****         #ifdef CYBLE_ESS_CLIENT
2144:Generated_Source\PSoC4/BLE_1_eventHandler.c ****             if((cyBle_eventHandlerFlag & CYBLE_CALLBACK) != 0u)
2145:Generated_Source\PSoC4/BLE_1_eventHandler.c ****             {
2146:Generated_Source\PSoC4/BLE_1_eventHandler.c ****                 CyBle_EsscExecuteWriteResponseEventHandler((CYBLE_GATTC_EXEC_WRITE_RSP_T *)eventPar
2147:Generated_Source\PSoC4/BLE_1_eventHandler.c ****             }
2148:Generated_Source\PSoC4/BLE_1_eventHandler.c ****         #endif /* CYBLE_ESS_CLIENT */
2149:Generated_Source\PSoC4/BLE_1_eventHandler.c ****         #ifdef CYBLE_HPS_CLIENT
2150:Generated_Source\PSoC4/BLE_1_eventHandler.c ****             if((cyBle_eventHandlerFlag & CYBLE_CALLBACK) != 0u)
2151:Generated_Source\PSoC4/BLE_1_eventHandler.c ****             {
2152:Generated_Source\PSoC4/BLE_1_eventHandler.c ****                 CyBle_HpscExecuteWriteResponseEventHandler((CYBLE_GATTC_EXEC_WRITE_RSP_T *)eventPar
2153:Generated_Source\PSoC4/BLE_1_eventHandler.c ****             }
2154:Generated_Source\PSoC4/BLE_1_eventHandler.c ****         #endif /* CYBLE_HPS_CLIENT */
2155:Generated_Source\PSoC4/BLE_1_eventHandler.c ****         #ifdef CYBLE_IPS_CLIENT
2156:Generated_Source\PSoC4/BLE_1_eventHandler.c ****             if((cyBle_eventHandlerFlag & CYBLE_CALLBACK) != 0u)
2157:Generated_Source\PSoC4/BLE_1_eventHandler.c ****             {
2158:Generated_Source\PSoC4/BLE_1_eventHandler.c ****                 CyBle_IpscExecuteWriteResponseEventHandler((CYBLE_GATTC_EXEC_WRITE_RSP_T *)eventPar
2159:Generated_Source\PSoC4/BLE_1_eventHandler.c ****             }
2160:Generated_Source\PSoC4/BLE_1_eventHandler.c ****         #endif /* CYBLE_IPS_CLIENT */
2161:Generated_Source\PSoC4/BLE_1_eventHandler.c ****         #ifdef CYBLE_UDS_CLIENT
2162:Generated_Source\PSoC4/BLE_1_eventHandler.c ****             if((cyBle_eventHandlerFlag & CYBLE_CALLBACK) != 0u)
2163:Generated_Source\PSoC4/BLE_1_eventHandler.c ****             {
2164:Generated_Source\PSoC4/BLE_1_eventHandler.c ****                 CyBle_UdscExecuteWriteResponseEventHandler((CYBLE_GATTC_EXEC_WRITE_RSP_T *)eventPar
2165:Generated_Source\PSoC4/BLE_1_eventHandler.c ****             }
2166:Generated_Source\PSoC4/BLE_1_eventHandler.c ****         #endif /* CYBLE_UDS_CLIENT */
2167:Generated_Source\PSoC4/BLE_1_eventHandler.c ****             break;
2168:Generated_Source\PSoC4/BLE_1_eventHandler.c ****             
2169:Generated_Source\PSoC4/BLE_1_eventHandler.c ****     #endif /* CYBLE_GATT_ROLE_CLIENT */
2170:Generated_Source\PSoC4/BLE_1_eventHandler.c **** 
2171:Generated_Source\PSoC4/BLE_1_eventHandler.c ****     #if((CYBLE_GAP_ROLE_PERIPHERAL || CYBLE_GAP_ROLE_CENTRAL) && (CYBLE_BONDING_REQUIREMENT == CYBL
2172:Generated_Source\PSoC4/BLE_1_eventHandler.c **** 
2173:Generated_Source\PSoC4/BLE_1_eventHandler.c ****         case CYBLE_EVT_PENDING_FLASH_WRITE:
2174:Generated_Source\PSoC4/BLE_1_eventHandler.c ****             cyBle_pendingFlashWrite |= CYBLE_PENDING_STACK_FLASH_WRITE_BIT;
 653              		.loc 1 2174 0
 654 025e 1C4A     		ldr	r2, .L43+68
 655 0260 1178     		ldrb	r1, [r2]
 656 0262 0123     		movs	r3, #1
 657 0264 0B43     		orrs	r3, r1
 658 0266 1370     		strb	r3, [r2]
 659              	.LVL59:
ARM GAS  C:\Users\ADMINI~1\AppData\Local\Temp\ccMaTind.s 			page 51


 660              	.L16:
2175:Generated_Source\PSoC4/BLE_1_eventHandler.c ****             break;
2176:Generated_Source\PSoC4/BLE_1_eventHandler.c ****         
2177:Generated_Source\PSoC4/BLE_1_eventHandler.c ****     #endif  /* (CYBLE_BONDING_REQUIREMENT == CYBLE_BONDING_YES) */
2178:Generated_Source\PSoC4/BLE_1_eventHandler.c ****     
2179:Generated_Source\PSoC4/BLE_1_eventHandler.c ****         default:
2180:Generated_Source\PSoC4/BLE_1_eventHandler.c ****             break;
2181:Generated_Source\PSoC4/BLE_1_eventHandler.c ****     }
2182:Generated_Source\PSoC4/BLE_1_eventHandler.c **** 
2183:Generated_Source\PSoC4/BLE_1_eventHandler.c ****     if(0u != (cyBle_eventHandlerFlag & (CYBLE_CALLBACK | CYBLE_ENABLE_ALL_EVENTS))) 
 661              		.loc 1 2183 0
 662 0268 084B     		ldr	r3, .L43
 663 026a 1A78     		ldrb	r2, [r3]
 664 026c 1123     		movs	r3, #17
 665 026e 1A42     		tst	r2, r3
 666 0270 09D0     		beq	.L15
2184:Generated_Source\PSoC4/BLE_1_eventHandler.c ****     {
2185:Generated_Source\PSoC4/BLE_1_eventHandler.c ****         cyBle_eventHandlerFlag &= (uint8)~CYBLE_CALLBACK;
 667              		.loc 1 2185 0
 668 0272 064A     		ldr	r2, .L43
 669 0274 1378     		ldrb	r3, [r2]
 670 0276 0121     		movs	r1, #1
 671 0278 8B43     		bics	r3, r1
 672 027a 1370     		strb	r3, [r2]
2186:Generated_Source\PSoC4/BLE_1_eventHandler.c ****         CyBle_ApplCallback((uint32)eventCode, eventParam);
 673              		.loc 1 2186 0
 674 027c 104B     		ldr	r3, .L43+52
 675 027e 1B68     		ldr	r3, [r3]
 676 0280 2900     		movs	r1, r5
 677 0282 2000     		movs	r0, r4
 678 0284 9847     		blx	r3
 679              	.LVL60:
 680              	.L15:
2187:Generated_Source\PSoC4/BLE_1_eventHandler.c ****     }
2188:Generated_Source\PSoC4/BLE_1_eventHandler.c **** }
 681              		.loc 1 2188 0
 682 0286 03B0     		add	sp, sp, #12
 683              		@ sp needed
 684              	.LVL61:
 685 0288 F0BD     		pop	{r4, r5, r6, r7, pc}
 686              	.L44:
 687 028a C046     		.align	2
 688              	.L43:
 689 028c 00000000 		.word	cyBle_eventHandlerFlag
 690 0290 00000000 		.word	cyBle_sflashDeviceAddress
 691 0294 7CF1FF0F 		.word	268431740
 692 0298 7DF1FF0F 		.word	268431741
 693 029c 7BF1FF0F 		.word	268431739
 694 02a0 78F1FF0F 		.word	268431736
 695 02a4 00000000 		.word	cyBle_deviceAddress
 696 02a8 00000000 		.word	cyBle_state
 697 02ac 00000000 		.word	cyBle_busyStatus
 698 02b0 00000000 		.word	.LANCHOR0
 699 02b4 E00A0000 		.word	cyBle_stackMemoryRam+2784
 700 02b8 00000000 		.word	.LANCHOR1
 701 02bc 00000000 		.word	cyBle_connHandle
 702 02c0 00000000 		.word	CyBle_ApplCallback
ARM GAS  C:\Users\ADMINI~1\AppData\Local\Temp\ccMaTind.s 			page 52


 703 02c4 00000000 		.word	cyBle_peerBonding
 704 02c8 00000000 		.word	cyBle_flashStorage
 705 02cc 00000000 		.word	cyBle_attValuesCCCD
 706 02d0 00000000 		.word	cyBle_pendingFlashWrite
 707              		.cfi_endproc
 708              	.LFE10:
 709              		.size	CyBle_EventHandler, .-CyBle_EventHandler
 710              		.global	cyBle_authInfo
 711              		.comm	cyBle_advertisingIntervalType,1,1
 712              		.global	cyBle_gaps
 713              		.comm	cyBle_busyStatus,1,1
 714              		.comm	cyBle_eventHandlerFlag,1,1
 715              		.comm	cyBle_connHandle,2,4
 716              		.section	.rodata
 717              		.align	2
 718              		.type	cyBle_gaps, %object
 719              		.size	cyBle_gaps, 12
 720              	cyBle_gaps:
 721 0000 0100     		.short	1
 722 0002 0300     		.short	3
 723 0004 0500     		.short	5
 724 0006 0700     		.short	7
 725 0008 0900     		.short	9
 726 000a 0B00     		.short	11
 727              		.data
 728              		.align	2
 729              		.set	.LANCHOR1,. + 0
 730              		.type	cyBle_authInfo, %object
 731              		.size	cyBle_authInfo, 5
 732              	cyBle_authInfo:
 733 0000 10       		.byte	16
 734 0001 01       		.byte	1
 735 0002 10       		.byte	16
 736 0003 00       		.byte	0
 737 0004 01       		.byte	1
 738              		.bss
 739              		.align	2
 740              		.set	.LANCHOR0,. + 0
 741              		.type	gPrepWriteReqMem.6683, %object
 742              		.size	gPrepWriteReqMem.6683, 8
 743              	gPrepWriteReqMem.6683:
 744 0000 00000000 		.space	8
 744      00000000 
 745              		.text
 746              	.Letext0:
 747              		.file 2 "Generated_Source\\PSoC4\\cytypes.h"
 748              		.file 3 "Generated_Source\\PSoC4\\BLE_1_Stack.h"
 749              		.file 4 "Generated_Source\\PSoC4\\BLE_1_StackHostMain.h"
 750              		.file 5 "Generated_Source\\PSoC4\\BLE_1_StackGap.h"
 751              		.file 6 "Generated_Source\\PSoC4\\BLE_1_StackGatt.h"
 752              		.file 7 "Generated_Source\\PSoC4\\BLE_1_StackGattServer.h"
 753              		.file 8 "Generated_Source\\PSoC4\\BLE_1.h"
 754              		.file 9 "Generated_Source\\PSoC4\\BLE_1_gatt.h"
 755              		.file 10 "Generated_Source\\PSoC4\\BLE_1_eventHandler.h"
 756              		.file 11 "Generated_Source\\PSoC4\\BLE_1_ias.h"
 757              		.section	.debug_info,"",%progbits
 758              	.Ldebug_info0:
ARM GAS  C:\Users\ADMINI~1\AppData\Local\Temp\ccMaTind.s 			page 53


 759 0000 FC0F0000 		.4byte	0xffc
 760 0004 0400     		.2byte	0x4
 761 0006 00000000 		.4byte	.Ldebug_abbrev0
 762 000a 04       		.byte	0x4
 763 000b 01       		.uleb128 0x1
 764 000c D4020000 		.4byte	.LASF347
 765 0010 0C       		.byte	0xc
 766 0011 5F1B0000 		.4byte	.LASF348
 767 0015 14200000 		.4byte	.LASF349
 768 0019 00000000 		.4byte	.Ldebug_ranges0+0
 769 001d 00000000 		.4byte	0
 770 0021 00000000 		.4byte	.Ldebug_line0
 771 0025 02       		.uleb128 0x2
 772 0026 01       		.byte	0x1
 773 0027 06       		.byte	0x6
 774 0028 A0080000 		.4byte	.LASF0
 775 002c 02       		.uleb128 0x2
 776 002d 01       		.byte	0x1
 777 002e 08       		.byte	0x8
 778 002f F2090000 		.4byte	.LASF1
 779 0033 02       		.uleb128 0x2
 780 0034 02       		.byte	0x2
 781 0035 05       		.byte	0x5
 782 0036 DF1E0000 		.4byte	.LASF2
 783 003a 02       		.uleb128 0x2
 784 003b 02       		.byte	0x2
 785 003c 07       		.byte	0x7
 786 003d C2230000 		.4byte	.LASF3
 787 0041 02       		.uleb128 0x2
 788 0042 04       		.byte	0x4
 789 0043 05       		.byte	0x5
 790 0044 87060000 		.4byte	.LASF4
 791 0048 02       		.uleb128 0x2
 792 0049 04       		.byte	0x4
 793 004a 07       		.byte	0x7
 794 004b BC100000 		.4byte	.LASF5
 795 004f 02       		.uleb128 0x2
 796 0050 08       		.byte	0x8
 797 0051 05       		.byte	0x5
 798 0052 EA130000 		.4byte	.LASF6
 799 0056 02       		.uleb128 0x2
 800 0057 08       		.byte	0x8
 801 0058 07       		.byte	0x7
 802 0059 2A1B0000 		.4byte	.LASF7
 803 005d 03       		.uleb128 0x3
 804 005e 04       		.byte	0x4
 805 005f 05       		.byte	0x5
 806 0060 696E7400 		.ascii	"int\000"
 807 0064 02       		.uleb128 0x2
 808 0065 04       		.byte	0x4
 809 0066 07       		.byte	0x7
 810 0067 87160000 		.4byte	.LASF8
 811 006b 04       		.uleb128 0x4
 812 006c 911E0000 		.4byte	.LASF9
 813 0070 02       		.byte	0x2
 814 0071 D201     		.2byte	0x1d2
 815 0073 2C000000 		.4byte	0x2c
ARM GAS  C:\Users\ADMINI~1\AppData\Local\Temp\ccMaTind.s 			page 54


 816 0077 04       		.uleb128 0x4
 817 0078 3A250000 		.4byte	.LASF10
 818 007c 02       		.byte	0x2
 819 007d D301     		.2byte	0x1d3
 820 007f 3A000000 		.4byte	0x3a
 821 0083 04       		.uleb128 0x4
 822 0084 79010000 		.4byte	.LASF11
 823 0088 02       		.byte	0x2
 824 0089 D401     		.2byte	0x1d4
 825 008b 48000000 		.4byte	0x48
 826 008f 02       		.uleb128 0x2
 827 0090 04       		.byte	0x4
 828 0091 04       		.byte	0x4
 829 0092 D1150000 		.4byte	.LASF12
 830 0096 02       		.uleb128 0x2
 831 0097 08       		.byte	0x8
 832 0098 04       		.byte	0x4
 833 0099 A4140000 		.4byte	.LASF13
 834 009d 02       		.uleb128 0x2
 835 009e 01       		.byte	0x1
 836 009f 08       		.byte	0x8
 837 00a0 210B0000 		.4byte	.LASF14
 838 00a4 05       		.uleb128 0x5
 839 00a5 6B000000 		.4byte	0x6b
 840 00a9 02       		.uleb128 0x2
 841 00aa 08       		.byte	0x8
 842 00ab 04       		.byte	0x4
 843 00ac 8E190000 		.4byte	.LASF15
 844 00b0 02       		.uleb128 0x2
 845 00b1 04       		.byte	0x4
 846 00b2 07       		.byte	0x7
 847 00b3 2D000000 		.4byte	.LASF16
 848 00b7 06       		.uleb128 0x6
 849 00b8 04       		.byte	0x4
 850 00b9 07       		.uleb128 0x7
 851 00ba 04       		.byte	0x4
 852 00bb BF000000 		.4byte	0xbf
 853 00bf 08       		.uleb128 0x8
 854 00c0 CF000000 		.4byte	0xcf
 855 00c4 09       		.uleb128 0x9
 856 00c5 83000000 		.4byte	0x83
 857 00c9 09       		.uleb128 0x9
 858 00ca B7000000 		.4byte	0xb7
 859 00ce 00       		.byte	0
 860 00cf 0A       		.uleb128 0xa
 861 00d0 01       		.byte	0x1
 862 00d1 2C000000 		.4byte	0x2c
 863 00d5 03       		.byte	0x3
 864 00d6 3501     		.2byte	0x135
 865 00d8 8D020000 		.4byte	0x28d
 866 00dc 0B       		.uleb128 0xb
 867 00dd A90B0000 		.4byte	.LASF17
 868 00e1 00       		.byte	0
 869 00e2 0B       		.uleb128 0xb
 870 00e3 0A070000 		.4byte	.LASF18
 871 00e7 01       		.byte	0x1
 872 00e8 0B       		.uleb128 0xb
ARM GAS  C:\Users\ADMINI~1\AppData\Local\Temp\ccMaTind.s 			page 55


 873 00e9 8B1B0000 		.4byte	.LASF19
 874 00ed 02       		.byte	0x2
 875 00ee 0B       		.uleb128 0xb
 876 00ef E1080000 		.4byte	.LASF20
 877 00f3 03       		.byte	0x3
 878 00f4 0B       		.uleb128 0xb
 879 00f5 5D240000 		.4byte	.LASF21
 880 00f9 04       		.byte	0x4
 881 00fa 0B       		.uleb128 0xb
 882 00fb 70220000 		.4byte	.LASF22
 883 00ff 05       		.byte	0x5
 884 0100 0B       		.uleb128 0xb
 885 0101 D7190000 		.4byte	.LASF23
 886 0105 06       		.byte	0x6
 887 0106 0B       		.uleb128 0xb
 888 0107 F01F0000 		.4byte	.LASF24
 889 010b 20       		.byte	0x20
 890 010c 0B       		.uleb128 0xb
 891 010d 78040000 		.4byte	.LASF25
 892 0111 21       		.byte	0x21
 893 0112 0B       		.uleb128 0xb
 894 0113 FB120000 		.4byte	.LASF26
 895 0117 22       		.byte	0x22
 896 0118 0B       		.uleb128 0xb
 897 0119 74180000 		.4byte	.LASF27
 898 011d 23       		.byte	0x23
 899 011e 0B       		.uleb128 0xb
 900 011f C80F0000 		.4byte	.LASF28
 901 0123 24       		.byte	0x24
 902 0124 0B       		.uleb128 0xb
 903 0125 E40F0000 		.4byte	.LASF29
 904 0129 25       		.byte	0x25
 905 012a 0B       		.uleb128 0xb
 906 012b 691E0000 		.4byte	.LASF30
 907 012f 26       		.byte	0x26
 908 0130 0B       		.uleb128 0xb
 909 0131 09010000 		.4byte	.LASF31
 910 0135 27       		.byte	0x27
 911 0136 0B       		.uleb128 0xb
 912 0137 F7240000 		.4byte	.LASF32
 913 013b 28       		.byte	0x28
 914 013c 0B       		.uleb128 0xb
 915 013d 1F1A0000 		.4byte	.LASF33
 916 0141 29       		.byte	0x29
 917 0142 0B       		.uleb128 0xb
 918 0143 36120000 		.4byte	.LASF34
 919 0147 2A       		.byte	0x2a
 920 0148 0B       		.uleb128 0xb
 921 0149 E9170000 		.4byte	.LASF35
 922 014d 2B       		.byte	0x2b
 923 014e 0B       		.uleb128 0xb
 924 014f E5220000 		.4byte	.LASF36
 925 0153 2C       		.byte	0x2c
 926 0154 0B       		.uleb128 0xb
 927 0155 72000000 		.4byte	.LASF37
 928 0159 2D       		.byte	0x2d
 929 015a 0B       		.uleb128 0xb
ARM GAS  C:\Users\ADMINI~1\AppData\Local\Temp\ccMaTind.s 			page 56


 930 015b A61E0000 		.4byte	.LASF38
 931 015f 2E       		.byte	0x2e
 932 0160 0B       		.uleb128 0xb
 933 0161 41050000 		.4byte	.LASF39
 934 0165 2F       		.byte	0x2f
 935 0166 0B       		.uleb128 0xb
 936 0167 000B0000 		.4byte	.LASF40
 937 016b 30       		.byte	0x30
 938 016c 0B       		.uleb128 0xb
 939 016d 6B150000 		.4byte	.LASF41
 940 0171 31       		.byte	0x31
 941 0172 0B       		.uleb128 0xb
 942 0173 F90B0000 		.4byte	.LASF42
 943 0177 32       		.byte	0x32
 944 0178 0B       		.uleb128 0xb
 945 0179 3A0A0000 		.4byte	.LASF43
 946 017d 33       		.byte	0x33
 947 017e 0B       		.uleb128 0xb
 948 017f 610A0000 		.4byte	.LASF44
 949 0183 34       		.byte	0x34
 950 0184 0B       		.uleb128 0xb
 951 0185 FC200000 		.4byte	.LASF45
 952 0189 35       		.byte	0x35
 953 018a 0B       		.uleb128 0xb
 954 018b E0040000 		.4byte	.LASF46
 955 018f 36       		.byte	0x36
 956 0190 0B       		.uleb128 0xb
 957 0191 AB1A0000 		.4byte	.LASF47
 958 0195 37       		.byte	0x37
 959 0196 0B       		.uleb128 0xb
 960 0197 6A1F0000 		.4byte	.LASF48
 961 019b 40       		.byte	0x40
 962 019c 0B       		.uleb128 0xb
 963 019d 49010000 		.4byte	.LASF49
 964 01a1 41       		.byte	0x41
 965 01a2 0B       		.uleb128 0xb
 966 01a3 72240000 		.4byte	.LASF50
 967 01a7 42       		.byte	0x42
 968 01a8 0B       		.uleb128 0xb
 969 01a9 481A0000 		.4byte	.LASF51
 970 01ad 43       		.byte	0x43
 971 01ae 0B       		.uleb128 0xb
 972 01af 000A0000 		.4byte	.LASF52
 973 01b3 44       		.byte	0x44
 974 01b4 0B       		.uleb128 0xb
 975 01b5 62090000 		.4byte	.LASF53
 976 01b9 45       		.byte	0x45
 977 01ba 0B       		.uleb128 0xb
 978 01bb 841D0000 		.4byte	.LASF54
 979 01bf 46       		.byte	0x46
 980 01c0 0B       		.uleb128 0xb
 981 01c1 661D0000 		.4byte	.LASF55
 982 01c5 47       		.byte	0x47
 983 01c6 0B       		.uleb128 0xb
 984 01c7 D90A0000 		.4byte	.LASF56
 985 01cb 48       		.byte	0x48
 986 01cc 0B       		.uleb128 0xb
ARM GAS  C:\Users\ADMINI~1\AppData\Local\Temp\ccMaTind.s 			page 57


 987 01cd E9180000 		.4byte	.LASF57
 988 01d1 49       		.byte	0x49
 989 01d2 0B       		.uleb128 0xb
 990 01d3 500C0000 		.4byte	.LASF58
 991 01d7 4A       		.byte	0x4a
 992 01d8 0B       		.uleb128 0xb
 993 01d9 560B0000 		.4byte	.LASF59
 994 01dd 4B       		.byte	0x4b
 995 01de 0B       		.uleb128 0xb
 996 01df 42180000 		.4byte	.LASF60
 997 01e3 4C       		.byte	0x4c
 998 01e4 0B       		.uleb128 0xb
 999 01e5 2F1E0000 		.4byte	.LASF61
 1000 01e9 4D       		.byte	0x4d
 1001 01ea 0B       		.uleb128 0xb
 1002 01eb 46060000 		.4byte	.LASF62
 1003 01ef 4E       		.byte	0x4e
 1004 01f0 0B       		.uleb128 0xb
 1005 01f1 94160000 		.4byte	.LASF63
 1006 01f5 4F       		.byte	0x4f
 1007 01f6 0B       		.uleb128 0xb
 1008 01f7 D11F0000 		.4byte	.LASF64
 1009 01fb 50       		.byte	0x50
 1010 01fc 0B       		.uleb128 0xb
 1011 01fd 930C0000 		.4byte	.LASF65
 1012 0201 51       		.byte	0x51
 1013 0202 0B       		.uleb128 0xb
 1014 0203 57040000 		.4byte	.LASF66
 1015 0207 52       		.byte	0x52
 1016 0208 0B       		.uleb128 0xb
 1017 0209 2E220000 		.4byte	.LASF67
 1018 020d 53       		.byte	0x53
 1019 020e 0B       		.uleb128 0xb
 1020 020f 19250000 		.4byte	.LASF68
 1021 0213 54       		.byte	0x54
 1022 0214 0B       		.uleb128 0xb
 1023 0215 7A020000 		.4byte	.LASF69
 1024 0219 55       		.byte	0x55
 1025 021a 0B       		.uleb128 0xb
 1026 021b 420D0000 		.4byte	.LASF70
 1027 021f 56       		.byte	0x56
 1028 0220 0B       		.uleb128 0xb
 1029 0221 FC150000 		.4byte	.LASF71
 1030 0225 57       		.byte	0x57
 1031 0226 0B       		.uleb128 0xb
 1032 0227 D4240000 		.4byte	.LASF72
 1033 022b 58       		.byte	0x58
 1034 022c 0B       		.uleb128 0xb
 1035 022d 53230000 		.4byte	.LASF73
 1036 0231 70       		.byte	0x70
 1037 0232 0B       		.uleb128 0xb
 1038 0233 2D0F0000 		.4byte	.LASF74
 1039 0237 71       		.byte	0x71
 1040 0238 0B       		.uleb128 0xb
 1041 0239 0C080000 		.4byte	.LASF75
 1042 023d 72       		.byte	0x72
 1043 023e 0B       		.uleb128 0xb
ARM GAS  C:\Users\ADMINI~1\AppData\Local\Temp\ccMaTind.s 			page 58


 1044 023f B31F0000 		.4byte	.LASF76
 1045 0243 73       		.byte	0x73
 1046 0244 0B       		.uleb128 0xb
 1047 0245 3C190000 		.4byte	.LASF77
 1048 0249 74       		.byte	0x74
 1049 024a 0B       		.uleb128 0xb
 1050 024b DA120000 		.4byte	.LASF78
 1051 024f 75       		.byte	0x75
 1052 0250 0B       		.uleb128 0xb
 1053 0251 B80A0000 		.4byte	.LASF79
 1054 0255 76       		.byte	0x76
 1055 0256 0B       		.uleb128 0xb
 1056 0257 FE1B0000 		.4byte	.LASF80
 1057 025b 77       		.byte	0x77
 1058 025c 0B       		.uleb128 0xb
 1059 025d 9E020000 		.4byte	.LASF81
 1060 0261 78       		.byte	0x78
 1061 0262 0B       		.uleb128 0xb
 1062 0263 64060000 		.4byte	.LASF82
 1063 0267 79       		.byte	0x79
 1064 0268 0B       		.uleb128 0xb
 1065 0269 B0240000 		.4byte	.LASF83
 1066 026d 7A       		.byte	0x7a
 1067 026e 0B       		.uleb128 0xb
 1068 026f CD140000 		.4byte	.LASF84
 1069 0273 FA       		.byte	0xfa
 1070 0274 0B       		.uleb128 0xb
 1071 0275 E8210000 		.4byte	.LASF85
 1072 0279 FB       		.byte	0xfb
 1073 027a 0B       		.uleb128 0xb
 1074 027b 7A0F0000 		.4byte	.LASF86
 1075 027f FC       		.byte	0xfc
 1076 0280 0B       		.uleb128 0xb
 1077 0281 76190000 		.4byte	.LASF87
 1078 0285 FD       		.byte	0xfd
 1079 0286 0B       		.uleb128 0xb
 1080 0287 DB170000 		.4byte	.LASF88
 1081 028b FF       		.byte	0xff
 1082 028c 00       		.byte	0
 1083 028d 0A       		.uleb128 0xa
 1084 028e 02       		.byte	0x2
 1085 028f 3A000000 		.4byte	0x3a
 1086 0293 03       		.byte	0x3
 1087 0294 EA03     		.2byte	0x3ea
 1088 0296 6C030000 		.4byte	0x36c
 1089 029a 0B       		.uleb128 0xb
 1090 029b 0D090000 		.4byte	.LASF89
 1091 029f 00       		.byte	0
 1092 02a0 0B       		.uleb128 0xb
 1093 02a1 D30D0000 		.4byte	.LASF90
 1094 02a5 01       		.byte	0x1
 1095 02a6 0B       		.uleb128 0xb
 1096 02a7 3F240000 		.4byte	.LASF91
 1097 02ab 02       		.byte	0x2
 1098 02ac 0B       		.uleb128 0xb
 1099 02ad 310E0000 		.4byte	.LASF92
 1100 02b1 03       		.byte	0x3
ARM GAS  C:\Users\ADMINI~1\AppData\Local\Temp\ccMaTind.s 			page 59


 1101 02b2 0B       		.uleb128 0xb
 1102 02b3 3C100000 		.4byte	.LASF93
 1103 02b7 04       		.byte	0x4
 1104 02b8 0B       		.uleb128 0xb
 1105 02b9 86140000 		.4byte	.LASF94
 1106 02bd 05       		.byte	0x5
 1107 02be 0B       		.uleb128 0xb
 1108 02bf 9B210000 		.4byte	.LASF95
 1109 02c3 06       		.byte	0x6
 1110 02c4 0B       		.uleb128 0xb
 1111 02c5 330C0000 		.4byte	.LASF96
 1112 02c9 07       		.byte	0x7
 1113 02ca 0B       		.uleb128 0xb
 1114 02cb B3150000 		.4byte	.LASF97
 1115 02cf 08       		.byte	0x8
 1116 02d0 0B       		.uleb128 0xb
 1117 02d1 B4200000 		.4byte	.LASF98
 1118 02d5 09       		.byte	0x9
 1119 02d6 0B       		.uleb128 0xb
 1120 02d7 41250000 		.4byte	.LASF99
 1121 02db 0A       		.byte	0xa
 1122 02dc 0B       		.uleb128 0xb
 1123 02dd A3040000 		.4byte	.LASF100
 1124 02e1 0B       		.byte	0xb
 1125 02e2 0B       		.uleb128 0xb
 1126 02e3 59220000 		.4byte	.LASF101
 1127 02e7 0C       		.byte	0xc
 1128 02e8 0B       		.uleb128 0xb
 1129 02e9 65170000 		.4byte	.LASF102
 1130 02ed 0D       		.byte	0xd
 1131 02ee 0B       		.uleb128 0xb
 1132 02ef C4110000 		.4byte	.LASF103
 1133 02f3 0E       		.byte	0xe
 1134 02f4 0B       		.uleb128 0xb
 1135 02f5 61140000 		.4byte	.LASF104
 1136 02f9 0F       		.byte	0xf
 1137 02fa 0B       		.uleb128 0xb
 1138 02fb 30020000 		.4byte	.LASF105
 1139 02ff 10       		.byte	0x10
 1140 0300 0B       		.uleb128 0xb
 1141 0301 8F150000 		.4byte	.LASF106
 1142 0305 11       		.byte	0x11
 1143 0306 0B       		.uleb128 0xb
 1144 0307 1D070000 		.4byte	.LASF107
 1145 030b 12       		.byte	0x12
 1146 030c 0B       		.uleb128 0xb
 1147 030d 78080000 		.4byte	.LASF108
 1148 0311 13       		.byte	0x13
 1149 0312 0B       		.uleb128 0xb
 1150 0313 AB140000 		.4byte	.LASF109
 1151 0317 27       		.byte	0x27
 1152 0318 0B       		.uleb128 0xb
 1153 0319 D7150000 		.4byte	.LASF110
 1154 031d 28       		.byte	0x28
 1155 031e 0B       		.uleb128 0xb
 1156 031f 5E020000 		.4byte	.LASF111
 1157 0323 29       		.byte	0x29
ARM GAS  C:\Users\ADMINI~1\AppData\Local\Temp\ccMaTind.s 			page 60


 1158 0324 0B       		.uleb128 0xb
 1159 0325 F11E0000 		.4byte	.LASF112
 1160 0329 2A       		.byte	0x2a
 1161 032a 0B       		.uleb128 0xb
 1162 032b 04110000 		.4byte	.LASF113
 1163 032f 2B       		.byte	0x2b
 1164 0330 0B       		.uleb128 0xb
 1165 0331 5F1C0000 		.4byte	.LASF114
 1166 0335 2C       		.byte	0x2c
 1167 0336 0B       		.uleb128 0xb
 1168 0337 F31D0000 		.4byte	.LASF115
 1169 033b 2D       		.byte	0x2d
 1170 033c 0B       		.uleb128 0xb
 1171 033d B70D0000 		.4byte	.LASF116
 1172 0341 FE       		.byte	0xfe
 1173 0342 0B       		.uleb128 0xb
 1174 0343 1D0F0000 		.4byte	.LASF117
 1175 0347 FF       		.byte	0xff
 1176 0348 0C       		.uleb128 0xc
 1177 0349 B3180000 		.4byte	.LASF118
 1178 034d 0001     		.2byte	0x100
 1179 034f 0C       		.uleb128 0xc
 1180 0350 9A180000 		.4byte	.LASF119
 1181 0354 0101     		.2byte	0x101
 1182 0356 0C       		.uleb128 0xc
 1183 0357 C0070000 		.4byte	.LASF120
 1184 035b 0201     		.2byte	0x102
 1185 035d 0C       		.uleb128 0xc
 1186 035e B81B0000 		.4byte	.LASF121
 1187 0362 0301     		.2byte	0x103
 1188 0364 0C       		.uleb128 0xc
 1189 0365 08100000 		.4byte	.LASF122
 1190 0369 0401     		.2byte	0x104
 1191 036b 00       		.byte	0
 1192 036c 04       		.uleb128 0x4
 1193 036d 07220000 		.4byte	.LASF123
 1194 0371 03       		.byte	0x3
 1195 0372 5C04     		.2byte	0x45c
 1196 0374 8D020000 		.4byte	0x28d
 1197 0378 0A       		.uleb128 0xa
 1198 0379 01       		.byte	0x1
 1199 037a 2C000000 		.4byte	0x2c
 1200 037e 03       		.byte	0x3
 1201 037f 9504     		.2byte	0x495
 1202 0381 BC030000 		.4byte	0x3bc
 1203 0385 0B       		.uleb128 0xb
 1204 0386 AC080000 		.4byte	.LASF124
 1205 038a 01       		.byte	0x1
 1206 038b 0B       		.uleb128 0xb
 1207 038c 11060000 		.4byte	.LASF125
 1208 0390 02       		.byte	0x2
 1209 0391 0B       		.uleb128 0xb
 1210 0392 BC190000 		.4byte	.LASF126
 1211 0396 03       		.byte	0x3
 1212 0397 0B       		.uleb128 0xb
 1213 0398 01050000 		.4byte	.LASF127
 1214 039c 04       		.byte	0x4
ARM GAS  C:\Users\ADMINI~1\AppData\Local\Temp\ccMaTind.s 			page 61


 1215 039d 0B       		.uleb128 0xb
 1216 039e 260B0000 		.4byte	.LASF128
 1217 03a2 05       		.byte	0x5
 1218 03a3 0B       		.uleb128 0xb
 1219 03a4 E9100000 		.4byte	.LASF129
 1220 03a8 06       		.byte	0x6
 1221 03a9 0B       		.uleb128 0xb
 1222 03aa B5210000 		.4byte	.LASF130
 1223 03ae 07       		.byte	0x7
 1224 03af 0B       		.uleb128 0xb
 1225 03b0 A5100000 		.4byte	.LASF131
 1226 03b4 08       		.byte	0x8
 1227 03b5 0B       		.uleb128 0xb
 1228 03b6 14150000 		.4byte	.LASF132
 1229 03ba 09       		.byte	0x9
 1230 03bb 00       		.byte	0
 1231 03bc 04       		.uleb128 0x4
 1232 03bd 47130000 		.4byte	.LASF133
 1233 03c1 03       		.byte	0x3
 1234 03c2 AC04     		.2byte	0x4ac
 1235 03c4 78030000 		.4byte	0x378
 1236 03c8 0A       		.uleb128 0xa
 1237 03c9 01       		.byte	0x1
 1238 03ca 2C000000 		.4byte	0x2c
 1239 03ce 03       		.byte	0x3
 1240 03cf B004     		.2byte	0x4b0
 1241 03d1 E8030000 		.4byte	0x3e8
 1242 03d5 0B       		.uleb128 0xb
 1243 03d6 D3210000 		.4byte	.LASF134
 1244 03da 00       		.byte	0
 1245 03db 0B       		.uleb128 0xb
 1246 03dc FA160000 		.4byte	.LASF135
 1247 03e0 01       		.byte	0x1
 1248 03e1 0B       		.uleb128 0xb
 1249 03e2 3E230000 		.4byte	.LASF136
 1250 03e6 02       		.byte	0x2
 1251 03e7 00       		.byte	0
 1252 03e8 04       		.uleb128 0x4
 1253 03e9 1C090000 		.4byte	.LASF137
 1254 03ed 03       		.byte	0x3
 1255 03ee B704     		.2byte	0x4b7
 1256 03f0 C8030000 		.4byte	0x3c8
 1257 03f4 0D       		.uleb128 0xd
 1258 03f5 02       		.byte	0x2
 1259 03f6 03       		.byte	0x3
 1260 03f7 BA04     		.2byte	0x4ba
 1261 03f9 18040000 		.4byte	0x418
 1262 03fd 0E       		.uleb128 0xe
 1263 03fe 95010000 		.4byte	.LASF138
 1264 0402 03       		.byte	0x3
 1265 0403 BD04     		.2byte	0x4bd
 1266 0405 BC030000 		.4byte	0x3bc
 1267 0409 00       		.byte	0
 1268 040a 0E       		.uleb128 0xe
 1269 040b 02080000 		.4byte	.LASF139
 1270 040f 03       		.byte	0x3
 1271 0410 BF04     		.2byte	0x4bf
ARM GAS  C:\Users\ADMINI~1\AppData\Local\Temp\ccMaTind.s 			page 62


 1272 0412 E8030000 		.4byte	0x3e8
 1273 0416 01       		.byte	0x1
 1274 0417 00       		.byte	0
 1275 0418 04       		.uleb128 0x4
 1276 0419 26230000 		.4byte	.LASF140
 1277 041d 03       		.byte	0x3
 1278 041e C004     		.2byte	0x4c0
 1279 0420 F4030000 		.4byte	0x3f4
 1280 0424 0A       		.uleb128 0xa
 1281 0425 01       		.byte	0x1
 1282 0426 2C000000 		.4byte	0x2c
 1283 042a 03       		.byte	0x3
 1284 042b EA04     		.2byte	0x4ea
 1285 042d 3E040000 		.4byte	0x43e
 1286 0431 0B       		.uleb128 0xb
 1287 0432 E01A0000 		.4byte	.LASF141
 1288 0436 00       		.byte	0
 1289 0437 0B       		.uleb128 0xb
 1290 0438 37110000 		.4byte	.LASF142
 1291 043c 01       		.byte	0x1
 1292 043d 00       		.byte	0
 1293 043e 04       		.uleb128 0x4
 1294 043f 79230000 		.4byte	.LASF143
 1295 0443 03       		.byte	0x3
 1296 0444 F104     		.2byte	0x4f1
 1297 0446 24040000 		.4byte	0x424
 1298 044a 0D       		.uleb128 0xd
 1299 044b 08       		.byte	0x8
 1300 044c 03       		.byte	0x3
 1301 044d F404     		.2byte	0x4f4
 1302 044f 7B040000 		.4byte	0x47b
 1303 0453 0E       		.uleb128 0xe
 1304 0454 CD000000 		.4byte	.LASF144
 1305 0458 03       		.byte	0x3
 1306 0459 F704     		.2byte	0x4f7
 1307 045b 3E040000 		.4byte	0x43e
 1308 045f 00       		.byte	0
 1309 0460 0E       		.uleb128 0xe
 1310 0461 FE0F0000 		.4byte	.LASF145
 1311 0465 03       		.byte	0x3
 1312 0466 FC04     		.2byte	0x4fc
 1313 0468 6B000000 		.4byte	0x6b
 1314 046c 01       		.byte	0x1
 1315 046d 0E       		.uleb128 0xe
 1316 046e AB0A0000 		.4byte	.LASF146
 1317 0472 03       		.byte	0x3
 1318 0473 0405     		.2byte	0x504
 1319 0475 B7000000 		.4byte	0xb7
 1320 0479 04       		.byte	0x4
 1321 047a 00       		.byte	0
 1322 047b 04       		.uleb128 0x4
 1323 047c 19140000 		.4byte	.LASF147
 1324 0480 03       		.byte	0x3
 1325 0481 0605     		.2byte	0x506
 1326 0483 4A040000 		.4byte	0x44a
 1327 0487 0D       		.uleb128 0xd
 1328 0488 07       		.byte	0x7
ARM GAS  C:\Users\ADMINI~1\AppData\Local\Temp\ccMaTind.s 			page 63


 1329 0489 03       		.byte	0x3
 1330 048a 2A05     		.2byte	0x52a
 1331 048c AB040000 		.4byte	0x4ab
 1332 0490 0E       		.uleb128 0xe
 1333 0491 39210000 		.4byte	.LASF148
 1334 0495 03       		.byte	0x3
 1335 0496 2D05     		.2byte	0x52d
 1336 0498 AB040000 		.4byte	0x4ab
 1337 049c 00       		.byte	0
 1338 049d 0E       		.uleb128 0xe
 1339 049e 86030000 		.4byte	.LASF149
 1340 04a2 03       		.byte	0x3
 1341 04a3 2F05     		.2byte	0x52f
 1342 04a5 6B000000 		.4byte	0x6b
 1343 04a9 06       		.byte	0x6
 1344 04aa 00       		.byte	0
 1345 04ab 0F       		.uleb128 0xf
 1346 04ac 6B000000 		.4byte	0x6b
 1347 04b0 BB040000 		.4byte	0x4bb
 1348 04b4 10       		.uleb128 0x10
 1349 04b5 B0000000 		.4byte	0xb0
 1350 04b9 05       		.byte	0x5
 1351 04ba 00       		.byte	0
 1352 04bb 04       		.uleb128 0x4
 1353 04bc B61C0000 		.4byte	.LASF150
 1354 04c0 03       		.byte	0x3
 1355 04c1 3005     		.2byte	0x530
 1356 04c3 87040000 		.4byte	0x487
 1357 04c7 07       		.uleb128 0x7
 1358 04c8 04       		.byte	0x4
 1359 04c9 6B000000 		.4byte	0x6b
 1360 04cd 11       		.uleb128 0x11
 1361 04ce 01       		.byte	0x1
 1362 04cf 2C000000 		.4byte	0x2c
 1363 04d3 04       		.byte	0x4
 1364 04d4 2F       		.byte	0x2f
 1365 04d5 F2040000 		.4byte	0x4f2
 1366 04d9 0B       		.uleb128 0xb
 1367 04da E31C0000 		.4byte	.LASF151
 1368 04de 01       		.byte	0x1
 1369 04df 0B       		.uleb128 0xb
 1370 04e0 771C0000 		.4byte	.LASF152
 1371 04e4 02       		.byte	0x2
 1372 04e5 0B       		.uleb128 0xb
 1373 04e6 9E240000 		.4byte	.LASF153
 1374 04ea 03       		.byte	0x3
 1375 04eb 0B       		.uleb128 0xb
 1376 04ec 3D1D0000 		.4byte	.LASF154
 1377 04f0 04       		.byte	0x4
 1378 04f1 00       		.byte	0
 1379 04f2 12       		.uleb128 0x12
 1380 04f3 8B030000 		.4byte	.LASF155
 1381 04f7 04       		.byte	0x4
 1382 04f8 3C       		.byte	0x3c
 1383 04f9 CD040000 		.4byte	0x4cd
 1384 04fd 0A       		.uleb128 0xa
 1385 04fe 01       		.byte	0x1
ARM GAS  C:\Users\ADMINI~1\AppData\Local\Temp\ccMaTind.s 			page 64


 1386 04ff 2C000000 		.4byte	0x2c
 1387 0503 05       		.byte	0x5
 1388 0504 0801     		.2byte	0x108
 1389 0506 29050000 		.4byte	0x529
 1390 050a 0B       		.uleb128 0xb
 1391 050b 90060000 		.4byte	.LASF156
 1392 050f 00       		.byte	0
 1393 0510 0B       		.uleb128 0xb
 1394 0511 A6060000 		.4byte	.LASF157
 1395 0515 01       		.byte	0x1
 1396 0516 0B       		.uleb128 0xb
 1397 0517 BC060000 		.4byte	.LASF158
 1398 051b 02       		.byte	0x2
 1399 051c 0B       		.uleb128 0xb
 1400 051d D2060000 		.4byte	.LASF159
 1401 0521 03       		.byte	0x3
 1402 0522 0B       		.uleb128 0xb
 1403 0523 0A0D0000 		.4byte	.LASF160
 1404 0527 0F       		.byte	0xf
 1405 0528 00       		.byte	0
 1406 0529 0A       		.uleb128 0xa
 1407 052a 01       		.byte	0x1
 1408 052b 2C000000 		.4byte	0x2c
 1409 052f 05       		.byte	0x5
 1410 0530 2701     		.2byte	0x127
 1411 0532 55050000 		.4byte	0x555
 1412 0536 0B       		.uleb128 0xb
 1413 0537 C3040000 		.4byte	.LASF161
 1414 053b 00       		.byte	0
 1415 053c 0B       		.uleb128 0xb
 1416 053d C7220000 		.4byte	.LASF162
 1417 0541 01       		.byte	0x1
 1418 0542 0B       		.uleb128 0xb
 1419 0543 8B0B0000 		.4byte	.LASF163
 1420 0547 02       		.byte	0x2
 1421 0548 0B       		.uleb128 0xb
 1422 0549 28010000 		.4byte	.LASF164
 1423 054d 03       		.byte	0x3
 1424 054e 0B       		.uleb128 0xb
 1425 054f 841F0000 		.4byte	.LASF165
 1426 0553 04       		.byte	0x4
 1427 0554 00       		.byte	0
 1428 0555 0A       		.uleb128 0xa
 1429 0556 01       		.byte	0x1
 1430 0557 2C000000 		.4byte	0x2c
 1431 055b 05       		.byte	0x5
 1432 055c 3D01     		.2byte	0x13d
 1433 055e CF050000 		.4byte	0x5cf
 1434 0562 0B       		.uleb128 0xb
 1435 0563 051A0000 		.4byte	.LASF166
 1436 0567 00       		.byte	0
 1437 0568 0B       		.uleb128 0xb
 1438 0569 AD050000 		.4byte	.LASF167
 1439 056d 01       		.byte	0x1
 1440 056e 0B       		.uleb128 0xb
 1441 056f 7F1A0000 		.4byte	.LASF168
 1442 0573 02       		.byte	0x2
ARM GAS  C:\Users\ADMINI~1\AppData\Local\Temp\ccMaTind.s 			page 65


 1443 0574 0B       		.uleb128 0xb
 1444 0575 78110000 		.4byte	.LASF169
 1445 0579 03       		.byte	0x3
 1446 057a 0B       		.uleb128 0xb
 1447 057b 93070000 		.4byte	.LASF170
 1448 057f 04       		.byte	0x4
 1449 0580 0B       		.uleb128 0xb
 1450 0581 121D0000 		.4byte	.LASF171
 1451 0585 05       		.byte	0x5
 1452 0586 0B       		.uleb128 0xb
 1453 0587 9C130000 		.4byte	.LASF172
 1454 058b 06       		.byte	0x6
 1455 058c 0B       		.uleb128 0xb
 1456 058d 4D110000 		.4byte	.LASF173
 1457 0591 07       		.byte	0x7
 1458 0592 0B       		.uleb128 0xb
 1459 0593 02040000 		.4byte	.LASF174
 1460 0597 08       		.byte	0x8
 1461 0598 0B       		.uleb128 0xb
 1462 0599 B3120000 		.4byte	.LASF175
 1463 059d 09       		.byte	0x9
 1464 059e 0B       		.uleb128 0xb
 1465 059f 830A0000 		.4byte	.LASF176
 1466 05a3 0A       		.byte	0xa
 1467 05a4 0B       		.uleb128 0xb
 1468 05a5 1F130000 		.4byte	.LASF177
 1469 05a9 0B       		.byte	0xb
 1470 05aa 0B       		.uleb128 0xb
 1471 05ab 98220000 		.4byte	.LASF178
 1472 05af 0C       		.byte	0xc
 1473 05b0 0B       		.uleb128 0xb
 1474 05b1 010E0000 		.4byte	.LASF179
 1475 05b5 0D       		.byte	0xd
 1476 05b6 0B       		.uleb128 0xb
 1477 05b7 89090000 		.4byte	.LASF180
 1478 05bb 0E       		.byte	0xe
 1479 05bc 0B       		.uleb128 0xb
 1480 05bd D5000000 		.4byte	.LASF181
 1481 05c1 0F       		.byte	0xf
 1482 05c2 0B       		.uleb128 0xb
 1483 05c3 D6030000 		.4byte	.LASF182
 1484 05c7 15       		.byte	0x15
 1485 05c8 0B       		.uleb128 0xb
 1486 05c9 530F0000 		.4byte	.LASF183
 1487 05cd 18       		.byte	0x18
 1488 05ce 00       		.byte	0
 1489 05cf 04       		.uleb128 0x4
 1490 05d0 23180000 		.4byte	.LASF184
 1491 05d4 05       		.byte	0x5
 1492 05d5 7D01     		.2byte	0x17d
 1493 05d7 55050000 		.4byte	0x555
 1494 05db 0D       		.uleb128 0xd
 1495 05dc 05       		.byte	0x5
 1496 05dd 05       		.byte	0x5
 1497 05de C601     		.2byte	0x1c6
 1498 05e0 26060000 		.4byte	0x626
 1499 05e4 0E       		.uleb128 0xe
ARM GAS  C:\Users\ADMINI~1\AppData\Local\Temp\ccMaTind.s 			page 66


 1500 05e5 30140000 		.4byte	.LASF185
 1501 05e9 05       		.byte	0x5
 1502 05ea D001     		.2byte	0x1d0
 1503 05ec 6B000000 		.4byte	0x6b
 1504 05f0 00       		.byte	0
 1505 05f1 0E       		.uleb128 0xe
 1506 05f2 61160000 		.4byte	.LASF186
 1507 05f6 05       		.byte	0x5
 1508 05f7 D601     		.2byte	0x1d6
 1509 05f9 6B000000 		.4byte	0x6b
 1510 05fd 01       		.byte	0x1
 1511 05fe 0E       		.uleb128 0xe
 1512 05ff 36000000 		.4byte	.LASF187
 1513 0603 05       		.byte	0x5
 1514 0604 DD01     		.2byte	0x1dd
 1515 0606 6B000000 		.4byte	0x6b
 1516 060a 02       		.byte	0x2
 1517 060b 0E       		.uleb128 0xe
 1518 060c E91E0000 		.4byte	.LASF188
 1519 0610 05       		.byte	0x5
 1520 0611 E101     		.2byte	0x1e1
 1521 0613 CF050000 		.4byte	0x5cf
 1522 0617 03       		.byte	0x3
 1523 0618 0E       		.uleb128 0xe
 1524 0619 1D1E0000 		.4byte	.LASF189
 1525 061d 05       		.byte	0x5
 1526 061e EB01     		.2byte	0x1eb
 1527 0620 6B000000 		.4byte	0x6b
 1528 0624 04       		.byte	0x4
 1529 0625 00       		.byte	0
 1530 0626 04       		.uleb128 0x4
 1531 0627 750B0000 		.4byte	.LASF190
 1532 062b 05       		.byte	0x5
 1533 062c ED01     		.2byte	0x1ed
 1534 062e DB050000 		.4byte	0x5db
 1535 0632 0D       		.uleb128 0xd
 1536 0633 08       		.byte	0x8
 1537 0634 05       		.byte	0x5
 1538 0635 7203     		.2byte	0x372
 1539 0637 70060000 		.4byte	0x670
 1540 063b 0E       		.uleb128 0xe
 1541 063c E2100000 		.4byte	.LASF191
 1542 0640 05       		.byte	0x5
 1543 0641 7803     		.2byte	0x378
 1544 0643 6B000000 		.4byte	0x6b
 1545 0647 00       		.byte	0
 1546 0648 0E       		.uleb128 0xe
 1547 0649 B9230000 		.4byte	.LASF192
 1548 064d 05       		.byte	0x5
 1549 064e 7E03     		.2byte	0x37e
 1550 0650 77000000 		.4byte	0x77
 1551 0654 02       		.byte	0x2
 1552 0655 0E       		.uleb128 0xe
 1553 0656 8C220000 		.4byte	.LASF193
 1554 065a 05       		.byte	0x5
 1555 065b 8303     		.2byte	0x383
 1556 065d 77000000 		.4byte	0x77
ARM GAS  C:\Users\ADMINI~1\AppData\Local\Temp\ccMaTind.s 			page 67


 1557 0661 04       		.byte	0x4
 1558 0662 0E       		.uleb128 0xe
 1559 0663 90240000 		.4byte	.LASF194
 1560 0667 05       		.byte	0x5
 1561 0668 8903     		.2byte	0x389
 1562 066a 77000000 		.4byte	0x77
 1563 066e 06       		.byte	0x6
 1564 066f 00       		.byte	0
 1565 0670 04       		.uleb128 0x4
 1566 0671 FD1A0000 		.4byte	.LASF195
 1567 0675 05       		.byte	0x5
 1568 0676 8B03     		.2byte	0x38b
 1569 0678 32060000 		.4byte	0x632
 1570 067c 11       		.uleb128 0x11
 1571 067d 01       		.byte	0x1
 1572 067e 2C000000 		.4byte	0x2c
 1573 0682 06       		.byte	0x6
 1574 0683 49       		.byte	0x49
 1575 0684 37070000 		.4byte	0x737
 1576 0688 0B       		.uleb128 0xb
 1577 0689 A20D0000 		.4byte	.LASF196
 1578 068d 01       		.byte	0x1
 1579 068e 0B       		.uleb128 0xb
 1580 068f 1A0C0000 		.4byte	.LASF197
 1581 0693 02       		.byte	0x2
 1582 0694 0B       		.uleb128 0xb
 1583 0695 2D060000 		.4byte	.LASF198
 1584 0699 03       		.byte	0x3
 1585 069a 0B       		.uleb128 0xb
 1586 069b C8080000 		.4byte	.LASF199
 1587 069f 04       		.byte	0x4
 1588 06a0 0B       		.uleb128 0xb
 1589 06a1 661A0000 		.4byte	.LASF200
 1590 06a5 05       		.byte	0x5
 1591 06a6 0B       		.uleb128 0xb
 1592 06a7 9A190000 		.4byte	.LASF201
 1593 06ab 06       		.byte	0x6
 1594 06ac 0B       		.uleb128 0xb
 1595 06ad E8060000 		.4byte	.LASF202
 1596 06b1 07       		.byte	0x7
 1597 06b2 0B       		.uleb128 0xb
 1598 06b3 20190000 		.4byte	.LASF203
 1599 06b7 08       		.byte	0x8
 1600 06b8 0B       		.uleb128 0xb
 1601 06b9 2A040000 		.4byte	.LASF204
 1602 06bd 09       		.byte	0x9
 1603 06be 0B       		.uleb128 0xb
 1604 06bf CE100000 		.4byte	.LASF205
 1605 06c3 0A       		.byte	0xa
 1606 06c4 0B       		.uleb128 0xb
 1607 06c5 7D210000 		.4byte	.LASF206
 1608 06c9 0B       		.byte	0xb
 1609 06ca 0B       		.uleb128 0xb
 1610 06cb CA1C0000 		.4byte	.LASF207
 1611 06cf 0C       		.byte	0xc
 1612 06d0 0B       		.uleb128 0xb
 1613 06d1 3A080000 		.4byte	.LASF208
ARM GAS  C:\Users\ADMINI~1\AppData\Local\Temp\ccMaTind.s 			page 68


 1614 06d5 0D       		.byte	0xd
 1615 06d6 0B       		.uleb128 0xb
 1616 06d7 CC180000 		.4byte	.LASF209
 1617 06db 0E       		.byte	0xe
 1618 06dc 0B       		.uleb128 0xb
 1619 06dd 69030000 		.4byte	.LASF210
 1620 06e1 0F       		.byte	0xf
 1621 06e2 0B       		.uleb128 0xb
 1622 06e3 1C240000 		.4byte	.LASF211
 1623 06e7 10       		.byte	0x10
 1624 06e8 0B       		.uleb128 0xb
 1625 06e9 1F100000 		.4byte	.LASF212
 1626 06ed 11       		.byte	0x11
 1627 06ee 0B       		.uleb128 0xb
 1628 06ef CA1E0000 		.4byte	.LASF213
 1629 06f3 12       		.byte	0x12
 1630 06f4 0B       		.uleb128 0xb
 1631 06f5 410B0000 		.4byte	.LASF214
 1632 06f9 13       		.byte	0x13
 1633 06fa 0B       		.uleb128 0xb
 1634 06fb 64010000 		.4byte	.LASF215
 1635 06ff 52       		.byte	0x52
 1636 0700 0B       		.uleb128 0xb
 1637 0701 ED010000 		.4byte	.LASF216
 1638 0705 16       		.byte	0x16
 1639 0706 0B       		.uleb128 0xb
 1640 0707 8A170000 		.4byte	.LASF217
 1641 070b 17       		.byte	0x17
 1642 070c 0B       		.uleb128 0xb
 1643 070d 09230000 		.4byte	.LASF218
 1644 0711 18       		.byte	0x18
 1645 0712 0B       		.uleb128 0xb
 1646 0713 000F0000 		.4byte	.LASF219
 1647 0717 19       		.byte	0x19
 1648 0718 0B       		.uleb128 0xb
 1649 0719 A8110000 		.4byte	.LASF220
 1650 071d 1B       		.byte	0x1b
 1651 071e 0B       		.uleb128 0xb
 1652 071f 1E0A0000 		.4byte	.LASF221
 1653 0723 1D       		.byte	0x1d
 1654 0724 0B       		.uleb128 0xb
 1655 0725 3F000000 		.4byte	.LASF222
 1656 0729 1E       		.byte	0x1e
 1657 072a 0B       		.uleb128 0xb
 1658 072b 9F0E0000 		.4byte	.LASF223
 1659 072f D2       		.byte	0xd2
 1660 0730 0B       		.uleb128 0xb
 1661 0731 9D1B0000 		.4byte	.LASF224
 1662 0735 FF       		.byte	0xff
 1663 0736 00       		.byte	0
 1664 0737 11       		.uleb128 0x11
 1665 0738 01       		.byte	0x1
 1666 0739 2C000000 		.4byte	0x2c
 1667 073d 06       		.byte	0x6
 1668 073e A5       		.byte	0xa5
 1669 073f 2E080000 		.4byte	0x82e
 1670 0743 0B       		.uleb128 0xb
ARM GAS  C:\Users\ADMINI~1\AppData\Local\Temp\ccMaTind.s 			page 69


 1671 0744 1D1C0000 		.4byte	.LASF225
 1672 0748 00       		.byte	0
 1673 0749 0B       		.uleb128 0xb
 1674 074a 411B0000 		.4byte	.LASF226
 1675 074e 01       		.byte	0x1
 1676 074f 0B       		.uleb128 0xb
 1677 0750 A6010000 		.4byte	.LASF227
 1678 0754 02       		.byte	0x2
 1679 0755 0B       		.uleb128 0xb
 1680 0756 96230000 		.4byte	.LASF228
 1681 075a 03       		.byte	0x3
 1682 075b 0B       		.uleb128 0xb
 1683 075c 78070000 		.4byte	.LASF229
 1684 0760 04       		.byte	0x4
 1685 0761 0B       		.uleb128 0xb
 1686 0762 B3160000 		.4byte	.LASF230
 1687 0766 05       		.byte	0x5
 1688 0767 0B       		.uleb128 0xb
 1689 0768 451F0000 		.4byte	.LASF231
 1690 076c 06       		.byte	0x6
 1691 076d 0B       		.uleb128 0xb
 1692 076e 02190000 		.4byte	.LASF232
 1693 0772 07       		.byte	0x7
 1694 0773 0B       		.uleb128 0xb
 1695 0774 2C160000 		.4byte	.LASF233
 1696 0778 08       		.byte	0x8
 1697 0779 0B       		.uleb128 0xb
 1698 077a 39140000 		.4byte	.LASF234
 1699 077e 09       		.byte	0x9
 1700 077f 0B       		.uleb128 0xb
 1701 0780 B8170000 		.4byte	.LASF235
 1702 0784 0A       		.byte	0xa
 1703 0785 0B       		.uleb128 0xb
 1704 0786 E80C0000 		.4byte	.LASF236
 1705 078a 0B       		.byte	0xb
 1706 078b 0B       		.uleb128 0xb
 1707 078c EB140000 		.4byte	.LASF237
 1708 0790 0C       		.byte	0xc
 1709 0791 0B       		.uleb128 0xb
 1710 0792 53080000 		.4byte	.LASF238
 1711 0796 0D       		.byte	0xd
 1712 0797 0B       		.uleb128 0xb
 1713 0798 DB0B0000 		.4byte	.LASF239
 1714 079c 0E       		.byte	0xe
 1715 079d 0B       		.uleb128 0xb
 1716 079e D5230000 		.4byte	.LASF240
 1717 07a2 0F       		.byte	0xf
 1718 07a3 0B       		.uleb128 0xb
 1719 07a4 0A020000 		.4byte	.LASF241
 1720 07a8 10       		.byte	0x10
 1721 07a9 0B       		.uleb128 0xb
 1722 07aa C8010000 		.4byte	.LASF242
 1723 07ae 11       		.byte	0x11
 1724 07af 0B       		.uleb128 0xb
 1725 07b0 A2030000 		.4byte	.LASF243
 1726 07b4 80       		.byte	0x80
 1727 07b5 0B       		.uleb128 0xb
ARM GAS  C:\Users\ADMINI~1\AppData\Local\Temp\ccMaTind.s 			page 70


 1728 07b6 B20C0000 		.4byte	.LASF244
 1729 07ba 80       		.byte	0x80
 1730 07bb 0B       		.uleb128 0xb
 1731 07bc 9A0F0000 		.4byte	.LASF245
 1732 07c0 80       		.byte	0x80
 1733 07c1 0B       		.uleb128 0xb
 1734 07c2 0E1F0000 		.4byte	.LASF246
 1735 07c6 80       		.byte	0x80
 1736 07c7 0B       		.uleb128 0xb
 1737 07c8 891C0000 		.4byte	.LASF247
 1738 07cc 80       		.byte	0x80
 1739 07cd 0B       		.uleb128 0xb
 1740 07ce 2D170000 		.4byte	.LASF248
 1741 07d2 80       		.byte	0x80
 1742 07d3 0B       		.uleb128 0xb
 1743 07d4 5F100000 		.4byte	.LASF249
 1744 07d8 80       		.byte	0x80
 1745 07d9 0B       		.uleb128 0xb
 1746 07da C00B0000 		.4byte	.LASF250
 1747 07de 80       		.byte	0x80
 1748 07df 0B       		.uleb128 0xb
 1749 07e0 BB0E0000 		.4byte	.LASF251
 1750 07e4 81       		.byte	0x81
 1751 07e5 0B       		.uleb128 0xb
 1752 07e6 A51D0000 		.4byte	.LASF252
 1753 07ea 81       		.byte	0x81
 1754 07eb 0B       		.uleb128 0xb
 1755 07ec 12000000 		.4byte	.LASF253
 1756 07f0 81       		.byte	0x81
 1757 07f1 0B       		.uleb128 0xb
 1758 07f2 54070000 		.4byte	.LASF254
 1759 07f6 81       		.byte	0x81
 1760 07f7 0B       		.uleb128 0xb
 1761 07f8 87050000 		.4byte	.LASF255
 1762 07fc 82       		.byte	0x82
 1763 07fd 0B       		.uleb128 0xb
 1764 07fe 40210000 		.4byte	.LASF256
 1765 0802 A0       		.byte	0xa0
 1766 0803 0B       		.uleb128 0xb
 1767 0804 ED110000 		.4byte	.LASF257
 1768 0808 A0       		.byte	0xa0
 1769 0809 0B       		.uleb128 0xb
 1770 080a D7050000 		.4byte	.LASF258
 1771 080e A1       		.byte	0xa1
 1772 080f 0B       		.uleb128 0xb
 1773 0810 8E200000 		.4byte	.LASF259
 1774 0814 A2       		.byte	0xa2
 1775 0815 0B       		.uleb128 0xb
 1776 0816 640D0000 		.4byte	.LASF260
 1777 081a A3       		.byte	0xa3
 1778 081b 0B       		.uleb128 0xb
 1779 081c 38090000 		.4byte	.LASF261
 1780 0820 FD       		.byte	0xfd
 1781 0821 0B       		.uleb128 0xb
 1782 0822 3E150000 		.4byte	.LASF262
 1783 0826 FE       		.byte	0xfe
 1784 0827 0B       		.uleb128 0xb
ARM GAS  C:\Users\ADMINI~1\AppData\Local\Temp\ccMaTind.s 			page 71


 1785 0828 5A190000 		.4byte	.LASF263
 1786 082c FF       		.byte	0xff
 1787 082d 00       		.byte	0
 1788 082e 04       		.uleb128 0x4
 1789 082f 6E200000 		.4byte	.LASF264
 1790 0833 06       		.byte	0x6
 1791 0834 5F01     		.2byte	0x15f
 1792 0836 37070000 		.4byte	0x737
 1793 083a 04       		.uleb128 0x4
 1794 083b D21B0000 		.4byte	.LASF265
 1795 083f 06       		.byte	0x6
 1796 0840 8901     		.2byte	0x189
 1797 0842 77000000 		.4byte	0x77
 1798 0846 0D       		.uleb128 0xd
 1799 0847 02       		.byte	0x2
 1800 0848 06       		.byte	0x6
 1801 0849 9301     		.2byte	0x193
 1802 084b 6A080000 		.4byte	0x86a
 1803 084f 0E       		.uleb128 0xe
 1804 0850 7E050000 		.4byte	.LASF266
 1805 0854 06       		.byte	0x6
 1806 0855 9A01     		.2byte	0x19a
 1807 0857 6B000000 		.4byte	0x6b
 1808 085b 00       		.byte	0
 1809 085c 0E       		.uleb128 0xe
 1810 085d 39240000 		.4byte	.LASF267
 1811 0861 06       		.byte	0x6
 1812 0862 A001     		.2byte	0x1a0
 1813 0864 6B000000 		.4byte	0x6b
 1814 0868 01       		.byte	0x1
 1815 0869 00       		.byte	0
 1816 086a 04       		.uleb128 0x4
 1817 086b 8F040000 		.4byte	.LASF268
 1818 086f 06       		.byte	0x6
 1819 0870 A201     		.2byte	0x1a2
 1820 0872 46080000 		.4byte	0x846
 1821 0876 0D       		.uleb128 0xd
 1822 0877 08       		.byte	0x8
 1823 0878 06       		.byte	0x6
 1824 0879 BE01     		.2byte	0x1be
 1825 087b A7080000 		.4byte	0x8a7
 1826 087f 13       		.uleb128 0x13
 1827 0880 76616C00 		.ascii	"val\000"
 1828 0884 06       		.byte	0x6
 1829 0885 C101     		.2byte	0x1c1
 1830 0887 C7040000 		.4byte	0x4c7
 1831 088b 00       		.byte	0
 1832 088c 13       		.uleb128 0x13
 1833 088d 6C656E00 		.ascii	"len\000"
 1834 0891 06       		.byte	0x6
 1835 0892 C401     		.2byte	0x1c4
 1836 0894 77000000 		.4byte	0x77
 1837 0898 04       		.byte	0x4
 1838 0899 0E       		.uleb128 0xe
 1839 089a 12240000 		.4byte	.LASF269
 1840 089e 06       		.byte	0x6
 1841 089f CB01     		.2byte	0x1cb
ARM GAS  C:\Users\ADMINI~1\AppData\Local\Temp\ccMaTind.s 			page 72


 1842 08a1 77000000 		.4byte	0x77
 1843 08a5 06       		.byte	0x6
 1844 08a6 00       		.byte	0
 1845 08a7 04       		.uleb128 0x4
 1846 08a8 C1020000 		.4byte	.LASF270
 1847 08ac 06       		.byte	0x6
 1848 08ad CD01     		.2byte	0x1cd
 1849 08af 76080000 		.4byte	0x876
 1850 08b3 0D       		.uleb128 0xd
 1851 08b4 0C       		.byte	0xc
 1852 08b5 06       		.byte	0x6
 1853 08b6 D001     		.2byte	0x1d0
 1854 08b8 D7080000 		.4byte	0x8d7
 1855 08bc 0E       		.uleb128 0xe
 1856 08bd 311C0000 		.4byte	.LASF271
 1857 08c1 06       		.byte	0x6
 1858 08c2 D301     		.2byte	0x1d3
 1859 08c4 A7080000 		.4byte	0x8a7
 1860 08c8 00       		.byte	0
 1861 08c9 0E       		.uleb128 0xe
 1862 08ca 56160000 		.4byte	.LASF272
 1863 08ce 06       		.byte	0x6
 1864 08cf D601     		.2byte	0x1d6
 1865 08d1 3A080000 		.4byte	0x83a
 1866 08d5 08       		.byte	0x8
 1867 08d6 00       		.byte	0
 1868 08d7 04       		.uleb128 0x4
 1869 08d8 E3070000 		.4byte	.LASF273
 1870 08dc 06       		.byte	0x6
 1871 08dd D801     		.2byte	0x1d8
 1872 08df B3080000 		.4byte	0x8b3
 1873 08e3 0D       		.uleb128 0xd
 1874 08e4 04       		.byte	0x4
 1875 08e5 06       		.byte	0x6
 1876 08e6 E601     		.2byte	0x1e6
 1877 08e8 07090000 		.4byte	0x907
 1878 08ec 0E       		.uleb128 0xe
 1879 08ed 071D0000 		.4byte	.LASF274
 1880 08f1 06       		.byte	0x6
 1881 08f2 E901     		.2byte	0x1e9
 1882 08f4 6A080000 		.4byte	0x86a
 1883 08f8 00       		.byte	0
 1884 08f9 13       		.uleb128 0x13
 1885 08fa 6D747500 		.ascii	"mtu\000"
 1886 08fe 06       		.byte	0x6
 1887 08ff EC01     		.2byte	0x1ec
 1888 0901 77000000 		.4byte	0x77
 1889 0905 02       		.byte	0x2
 1890 0906 00       		.byte	0
 1891 0907 04       		.uleb128 0x4
 1892 0908 DE160000 		.4byte	.LASF275
 1893 090c 06       		.byte	0x6
 1894 090d EE01     		.2byte	0x1ee
 1895 090f E3080000 		.4byte	0x8e3
 1896 0913 0D       		.uleb128 0xd
 1897 0914 08       		.byte	0x8
 1898 0915 06       		.byte	0x6
ARM GAS  C:\Users\ADMINI~1\AppData\Local\Temp\ccMaTind.s 			page 73


 1899 0916 FC01     		.2byte	0x1fc
 1900 0918 44090000 		.4byte	0x944
 1901 091c 0E       		.uleb128 0xe
 1902 091d 3C1A0000 		.4byte	.LASF276
 1903 0921 06       		.byte	0x6
 1904 0922 0102     		.2byte	0x201
 1905 0924 C7040000 		.4byte	0x4c7
 1906 0928 00       		.byte	0
 1907 0929 0E       		.uleb128 0xe
 1908 092a 371C0000 		.4byte	.LASF277
 1909 092e 06       		.byte	0x6
 1910 092f 0602     		.2byte	0x206
 1911 0931 77000000 		.4byte	0x77
 1912 0935 04       		.byte	0x4
 1913 0936 0E       		.uleb128 0xe
 1914 0937 560E0000 		.4byte	.LASF278
 1915 093b 06       		.byte	0x6
 1916 093c 0D02     		.2byte	0x20d
 1917 093e 77000000 		.4byte	0x77
 1918 0942 06       		.byte	0x6
 1919 0943 00       		.byte	0
 1920 0944 04       		.uleb128 0x4
 1921 0945 11120000 		.4byte	.LASF279
 1922 0949 06       		.byte	0x6
 1923 094a 0F02     		.2byte	0x20f
 1924 094c 13090000 		.4byte	0x913
 1925 0950 14       		.uleb128 0x14
 1926 0951 04       		.byte	0x4
 1927 0952 07       		.byte	0x7
 1928 0953 3A       		.byte	0x3a
 1929 0954 7D090000 		.4byte	0x97d
 1930 0958 15       		.uleb128 0x15
 1931 0959 56160000 		.4byte	.LASF272
 1932 095d 07       		.byte	0x7
 1933 095e 3D       		.byte	0x3d
 1934 095f 3A080000 		.4byte	0x83a
 1935 0963 00       		.byte	0
 1936 0964 15       		.uleb128 0x15
 1937 0965 25160000 		.4byte	.LASF280
 1938 0969 07       		.byte	0x7
 1939 096a 43       		.byte	0x43
 1940 096b 6B000000 		.4byte	0x6b
 1941 096f 02       		.byte	0x2
 1942 0970 15       		.uleb128 0x15
 1943 0971 790A0000 		.4byte	.LASF281
 1944 0975 07       		.byte	0x7
 1945 0976 46       		.byte	0x46
 1946 0977 2E080000 		.4byte	0x82e
 1947 097b 03       		.byte	0x3
 1948 097c 00       		.byte	0
 1949 097d 12       		.uleb128 0x12
 1950 097e DA090000 		.4byte	.LASF282
 1951 0982 07       		.byte	0x7
 1952 0983 48       		.byte	0x48
 1953 0984 50090000 		.4byte	0x950
 1954 0988 14       		.uleb128 0x14
 1955 0989 10       		.byte	0x10
ARM GAS  C:\Users\ADMINI~1\AppData\Local\Temp\ccMaTind.s 			page 74


 1956 098a 07       		.byte	0x7
 1957 098b 8A       		.byte	0x8a
 1958 098c A9090000 		.4byte	0x9a9
 1959 0990 15       		.uleb128 0x15
 1960 0991 071D0000 		.4byte	.LASF274
 1961 0995 07       		.byte	0x7
 1962 0996 8D       		.byte	0x8d
 1963 0997 6A080000 		.4byte	0x86a
 1964 099b 00       		.byte	0
 1965 099c 15       		.uleb128 0x15
 1966 099d F91C0000 		.4byte	.LASF283
 1967 09a1 07       		.byte	0x7
 1968 09a2 90       		.byte	0x90
 1969 09a3 D7080000 		.4byte	0x8d7
 1970 09a7 04       		.byte	0x4
 1971 09a8 00       		.byte	0
 1972 09a9 12       		.uleb128 0x12
 1973 09aa 69160000 		.4byte	.LASF284
 1974 09ae 07       		.byte	0x7
 1975 09af 92       		.byte	0x92
 1976 09b0 88090000 		.4byte	0x988
 1977 09b4 04       		.uleb128 0x4
 1978 09b5 46040000 		.4byte	.LASF285
 1979 09b9 08       		.byte	0x8
 1980 09ba 0202     		.2byte	0x202
 1981 09bc B9000000 		.4byte	0xb9
 1982 09c0 16       		.uleb128 0x16
 1983 09c1 8502     		.2byte	0x285
 1984 09c3 09       		.byte	0x9
 1985 09c4 9D       		.byte	0x9d
 1986 09c5 FD090000 		.4byte	0x9fd
 1987 09c9 15       		.uleb128 0x15
 1988 09ca 8C0F0000 		.4byte	.LASF286
 1989 09ce 09       		.byte	0x9
 1990 09cf A0       		.byte	0xa0
 1991 09d0 FD090000 		.4byte	0x9fd
 1992 09d4 00       		.byte	0
 1993 09d5 17       		.uleb128 0x17
 1994 09d6 860E0000 		.4byte	.LASF287
 1995 09da 09       		.byte	0x9
 1996 09db A3       		.byte	0xa3
 1997 09dc 0E0A0000 		.4byte	0xa0e
 1998 09e0 7902     		.2byte	0x279
 1999 09e2 17       		.uleb128 0x17
 2000 09e3 84200000 		.4byte	.LASF288
 2001 09e7 09       		.byte	0x9
 2002 09e8 A6       		.byte	0xa6
 2003 09e9 6B000000 		.4byte	0x6b
 2004 09ed 8302     		.2byte	0x283
 2005 09ef 17       		.uleb128 0x17
 2006 09f0 F10D0000 		.4byte	.LASF289
 2007 09f4 09       		.byte	0x9
 2008 09f5 A9       		.byte	0xa9
 2009 09f6 6B000000 		.4byte	0x6b
 2010 09fa 8402     		.2byte	0x284
 2011 09fc 00       		.byte	0
 2012 09fd 0F       		.uleb128 0xf
ARM GAS  C:\Users\ADMINI~1\AppData\Local\Temp\ccMaTind.s 			page 75


 2013 09fe 6B000000 		.4byte	0x6b
 2014 0a02 0E0A0000 		.4byte	0xa0e
 2015 0a06 18       		.uleb128 0x18
 2016 0a07 B0000000 		.4byte	0xb0
 2017 0a0b 7802     		.2byte	0x278
 2018 0a0d 00       		.byte	0
 2019 0a0e 0F       		.uleb128 0xf
 2020 0a0f 6B000000 		.4byte	0x6b
 2021 0a13 240A0000 		.4byte	0xa24
 2022 0a17 10       		.uleb128 0x10
 2023 0a18 B0000000 		.4byte	0xb0
 2024 0a1c 04       		.byte	0x4
 2025 0a1d 10       		.uleb128 0x10
 2026 0a1e B0000000 		.4byte	0xb0
 2027 0a22 01       		.byte	0x1
 2028 0a23 00       		.byte	0
 2029 0a24 12       		.uleb128 0x12
 2030 0a25 5D130000 		.4byte	.LASF290
 2031 0a29 09       		.byte	0x9
 2032 0a2a AA       		.byte	0xaa
 2033 0a2b C0090000 		.4byte	0x9c0
 2034 0a2f 0A       		.uleb128 0xa
 2035 0a30 01       		.byte	0x1
 2036 0a31 2C000000 		.4byte	0x2c
 2037 0a35 0A       		.byte	0xa
 2038 0a36 5A08     		.2byte	0x85a
 2039 0a38 5B0A0000 		.4byte	0xa5b
 2040 0a3c 0B       		.uleb128 0xb
 2041 0a3d C6090000 		.4byte	.LASF291
 2042 0a41 00       		.byte	0
 2043 0a42 0B       		.uleb128 0xb
 2044 0a43 8C120000 		.4byte	.LASF292
 2045 0a47 01       		.byte	0x1
 2046 0a48 0B       		.uleb128 0xb
 2047 0a49 FC230000 		.4byte	.LASF293
 2048 0a4d 02       		.byte	0x2
 2049 0a4e 0B       		.uleb128 0xb
 2050 0a4f 29050000 		.4byte	.LASF294
 2051 0a53 03       		.byte	0x3
 2052 0a54 0B       		.uleb128 0xb
 2053 0a55 491E0000 		.4byte	.LASF295
 2054 0a59 04       		.byte	0x4
 2055 0a5a 00       		.byte	0
 2056 0a5b 04       		.uleb128 0x4
 2057 0a5c A51F0000 		.4byte	.LASF296
 2058 0a60 0A       		.byte	0xa
 2059 0a61 6808     		.2byte	0x868
 2060 0a63 2F0A0000 		.4byte	0xa2f
 2061 0a67 0D       		.uleb128 0xd
 2062 0a68 0C       		.byte	0xc
 2063 0a69 0A       		.byte	0xa
 2064 0a6a A309     		.2byte	0x9a3
 2065 0a6c BF0A0000 		.4byte	0xabf
 2066 0a70 0E       		.uleb128 0xe
 2067 0a71 80010000 		.4byte	.LASF297
 2068 0a75 0A       		.byte	0xa
 2069 0a76 A609     		.2byte	0x9a6
ARM GAS  C:\Users\ADMINI~1\AppData\Local\Temp\ccMaTind.s 			page 76


 2070 0a78 3A080000 		.4byte	0x83a
 2071 0a7c 00       		.byte	0
 2072 0a7d 0E       		.uleb128 0xe
 2073 0a7e 29150000 		.4byte	.LASF298
 2074 0a82 0A       		.byte	0xa
 2075 0a83 A809     		.2byte	0x9a8
 2076 0a85 3A080000 		.4byte	0x83a
 2077 0a89 02       		.byte	0x2
 2078 0a8a 0E       		.uleb128 0xe
 2079 0a8b F0190000 		.4byte	.LASF299
 2080 0a8f 0A       		.byte	0xa
 2081 0a90 AA09     		.2byte	0x9aa
 2082 0a92 3A080000 		.4byte	0x83a
 2083 0a96 04       		.byte	0x4
 2084 0a97 0E       		.uleb128 0xe
 2085 0a98 5C180000 		.4byte	.LASF300
 2086 0a9c 0A       		.byte	0xa
 2087 0a9d AD09     		.2byte	0x9ad
 2088 0a9f 3A080000 		.4byte	0x83a
 2089 0aa3 06       		.byte	0x6
 2090 0aa4 0E       		.uleb128 0xe
 2091 0aa5 19210000 		.4byte	.LASF301
 2092 0aa9 0A       		.byte	0xa
 2093 0aaa AF09     		.2byte	0x9af
 2094 0aac 3A080000 		.4byte	0x83a
 2095 0ab0 08       		.byte	0x8
 2096 0ab1 0E       		.uleb128 0xe
 2097 0ab2 28080000 		.4byte	.LASF302
 2098 0ab6 0A       		.byte	0xa
 2099 0ab7 B109     		.2byte	0x9b1
 2100 0ab9 3A080000 		.4byte	0x83a
 2101 0abd 0A       		.byte	0xa
 2102 0abe 00       		.byte	0
 2103 0abf 04       		.uleb128 0x4
 2104 0ac0 A91C0000 		.4byte	.LASF303
 2105 0ac4 0A       		.byte	0xa
 2106 0ac5 B209     		.2byte	0x9b2
 2107 0ac7 670A0000 		.4byte	0xa67
 2108 0acb 19       		.uleb128 0x19
 2109 0acc F8130000 		.4byte	.LASF304
 2110 0ad0 01       		.byte	0x1
 2111 0ad1 4B05     		.2byte	0x54b
 2112 0ad3 00000000 		.4byte	.LFB4
 2113 0ad7 14000000 		.4byte	.LFE4-.LFB4
 2114 0adb 01       		.uleb128 0x1
 2115 0adc 9C       		.byte	0x9c
 2116 0add EB0A0000 		.4byte	0xaeb
 2117 0ae1 1A       		.uleb128 0x1a
 2118 0ae2 0E000000 		.4byte	.LVL0
 2119 0ae6 5D0F0000 		.4byte	0xf5d
 2120 0aea 00       		.byte	0
 2121 0aeb 1B       		.uleb128 0x1b
 2122 0aec B7000000 		.4byte	.LASF305
 2123 0af0 01       		.byte	0x1
 2124 0af1 F9       		.byte	0xf9
 2125 0af2 00000000 		.4byte	.LFB2
 2126 0af6 38000000 		.4byte	.LFE2-.LFB2
ARM GAS  C:\Users\ADMINI~1\AppData\Local\Temp\ccMaTind.s 			page 77


 2127 0afa 01       		.uleb128 0x1
 2128 0afb 9C       		.byte	0x9c
 2129 0afc 690B0000 		.4byte	0xb69
 2130 0b00 1C       		.uleb128 0x1c
 2131 0b01 FE000000 		.4byte	.LASF308
 2132 0b05 01       		.byte	0x1
 2133 0b06 F9       		.byte	0xf9
 2134 0b07 690B0000 		.4byte	0xb69
 2135 0b0b 00000000 		.4byte	.LLST0
 2136 0b0f 1D       		.uleb128 0x1d
 2137 0b10 8E230000 		.4byte	.LASF306
 2138 0b14 01       		.byte	0x1
 2139 0b15 FB       		.byte	0xfb
 2140 0b16 2E080000 		.4byte	0x82e
 2141 0b1a 2C000000 		.4byte	.LLST1
 2142 0b1e 1E       		.uleb128 0x1e
 2143 0b1f 16000000 		.4byte	.LBB2
 2144 0b23 12000000 		.4byte	.LBE2-.LBB2
 2145 0b27 4B0B0000 		.4byte	0xb4b
 2146 0b2b 1F       		.uleb128 0x1f
 2147 0b2c 5B170000 		.4byte	.LASF307
 2148 0b30 01       		.byte	0x1
 2149 0b31 B501     		.2byte	0x1b5
 2150 0b33 7D090000 		.4byte	0x97d
 2151 0b37 02       		.uleb128 0x2
 2152 0b38 91       		.byte	0x91
 2153 0b39 74       		.sleb128 -12
 2154 0b3a 20       		.uleb128 0x20
 2155 0b3b 28000000 		.4byte	.LVL4
 2156 0b3f 680F0000 		.4byte	0xf68
 2157 0b43 21       		.uleb128 0x21
 2158 0b44 01       		.uleb128 0x1
 2159 0b45 51       		.byte	0x51
 2160 0b46 02       		.uleb128 0x2
 2161 0b47 91       		.byte	0x91
 2162 0b48 74       		.sleb128 -12
 2163 0b49 00       		.byte	0
 2164 0b4a 00       		.byte	0
 2165 0b4b 22       		.uleb128 0x22
 2166 0b4c 0A000000 		.4byte	.LVL2
 2167 0b50 740F0000 		.4byte	0xf74
 2168 0b54 5F0B0000 		.4byte	0xb5f
 2169 0b58 21       		.uleb128 0x21
 2170 0b59 01       		.uleb128 0x1
 2171 0b5a 50       		.byte	0x50
 2172 0b5b 02       		.uleb128 0x2
 2173 0b5c 74       		.byte	0x74
 2174 0b5d 00       		.sleb128 0
 2175 0b5e 00       		.byte	0
 2176 0b5f 1A       		.uleb128 0x1a
 2177 0b60 30000000 		.4byte	.LVL7
 2178 0b64 7F0F0000 		.4byte	0xf7f
 2179 0b68 00       		.byte	0
 2180 0b69 07       		.uleb128 0x7
 2181 0b6a 04       		.byte	0x4
 2182 0b6b A9090000 		.4byte	0x9a9
 2183 0b6f 23       		.uleb128 0x23
ARM GAS  C:\Users\ADMINI~1\AppData\Local\Temp\ccMaTind.s 			page 78


 2184 0b70 08180000 		.4byte	.LASF350
 2185 0b74 01       		.byte	0x1
 2186 0b75 E705     		.2byte	0x5e7
 2187 0b77 6B000000 		.4byte	0x6b
 2188 0b7b 00000000 		.4byte	.LFB7
 2189 0b7f 24000000 		.4byte	.LFE7-.LFB7
 2190 0b83 01       		.uleb128 0x1
 2191 0b84 9C       		.byte	0x9c
 2192 0b85 B80B0000 		.4byte	0xbb8
 2193 0b89 24       		.uleb128 0x24
 2194 0b8a 6E0C0000 		.4byte	.LASF309
 2195 0b8e 01       		.byte	0x1
 2196 0b8f E705     		.2byte	0x5e7
 2197 0b91 B80B0000 		.4byte	0xbb8
 2198 0b95 56000000 		.4byte	.LLST2
 2199 0b99 25       		.uleb128 0x25
 2200 0b9a 6900     		.ascii	"i\000"
 2201 0b9c 01       		.byte	0x1
 2202 0b9d E905     		.2byte	0x5e9
 2203 0b9f 6B000000 		.4byte	0x6b
 2204 0ba3 A9000000 		.4byte	.LLST3
 2205 0ba7 26       		.uleb128 0x26
 2206 0ba8 1C050000 		.4byte	.LASF310
 2207 0bac 01       		.byte	0x1
 2208 0bad EA05     		.2byte	0x5ea
 2209 0baf 6B000000 		.4byte	0x6b
 2210 0bb3 D2000000 		.4byte	.LLST4
 2211 0bb7 00       		.byte	0
 2212 0bb8 07       		.uleb128 0x7
 2213 0bb9 04       		.byte	0x4
 2214 0bba BE0B0000 		.4byte	0xbbe
 2215 0bbe 27       		.uleb128 0x27
 2216 0bbf BB040000 		.4byte	0x4bb
 2217 0bc3 28       		.uleb128 0x28
 2218 0bc4 FA080000 		.4byte	.LASF351
 2219 0bc8 01       		.byte	0x1
 2220 0bc9 3F06     		.2byte	0x63f
 2221 0bcb 00000000 		.4byte	.LFB10
 2222 0bcf D4020000 		.4byte	.LFE10-.LFB10
 2223 0bd3 01       		.uleb128 0x1
 2224 0bd4 9C       		.byte	0x9c
 2225 0bd5 560E0000 		.4byte	0xe56
 2226 0bd9 24       		.uleb128 0x24
 2227 0bda 4F220000 		.4byte	.LASF311
 2228 0bde 01       		.byte	0x1
 2229 0bdf 3F06     		.2byte	0x63f
 2230 0be1 6B000000 		.4byte	0x6b
 2231 0be5 F1000000 		.4byte	.LLST5
 2232 0be9 24       		.uleb128 0x24
 2233 0bea FE000000 		.4byte	.LASF308
 2234 0bee 01       		.byte	0x1
 2235 0bef 3F06     		.2byte	0x63f
 2236 0bf1 B7000000 		.4byte	0xb7
 2237 0bf5 C1010000 		.4byte	.LLST6
 2238 0bf9 1E       		.uleb128 0x1e
 2239 0bfa 72000000 		.4byte	.LBB3
 2240 0bfe 20000000 		.4byte	.LBE3-.LBB3
ARM GAS  C:\Users\ADMINI~1\AppData\Local\Temp\ccMaTind.s 			page 79


 2241 0c02 470C0000 		.4byte	0xc47
 2242 0c06 1F       		.uleb128 0x1f
 2243 0c07 EE1B0000 		.4byte	.LASF312
 2244 0c0b 01       		.byte	0x1
 2245 0c0c 4C06     		.2byte	0x64c
 2246 0c0e 18040000 		.4byte	0x418
 2247 0c12 02       		.uleb128 0x2
 2248 0c13 91       		.byte	0x91
 2249 0c14 64       		.sleb128 -28
 2250 0c15 22       		.uleb128 0x22
 2251 0c16 82000000 		.4byte	.LVL22
 2252 0c1a 8B0F0000 		.4byte	0xf8b
 2253 0c1e 290C0000 		.4byte	0xc29
 2254 0c22 21       		.uleb128 0x21
 2255 0c23 01       		.uleb128 0x1
 2256 0c24 50       		.byte	0x50
 2257 0c25 02       		.uleb128 0x2
 2258 0c26 76       		.byte	0x76
 2259 0c27 00       		.sleb128 0
 2260 0c28 00       		.byte	0
 2261 0c29 22       		.uleb128 0x22
 2262 0c2a 8E000000 		.4byte	.LVL23
 2263 0c2e 8B0F0000 		.4byte	0xf8b
 2264 0c32 3D0C0000 		.4byte	0xc3d
 2265 0c36 21       		.uleb128 0x21
 2266 0c37 01       		.uleb128 0x1
 2267 0c38 50       		.byte	0x50
 2268 0c39 02       		.uleb128 0x2
 2269 0c3a 76       		.byte	0x76
 2270 0c3b 00       		.sleb128 0
 2271 0c3c 00       		.byte	0
 2272 0c3d 1A       		.uleb128 0x1a
 2273 0c3e 92000000 		.4byte	.LVL24
 2274 0c42 970F0000 		.4byte	0xf97
 2275 0c46 00       		.byte	0
 2276 0c47 1E       		.uleb128 0x1e
 2277 0c48 BA000000 		.4byte	.LBB4
 2278 0c4c 40000000 		.4byte	.LBE4-.LBB4
 2279 0c50 650C0000 		.4byte	0xc65
 2280 0c54 26       		.uleb128 0x26
 2281 0c55 91210000 		.4byte	.LASF313
 2282 0c59 01       		.byte	0x1
 2283 0c5a 7506     		.2byte	0x675
 2284 0c5c 83000000 		.4byte	0x83
 2285 0c60 ED010000 		.4byte	.LLST7
 2286 0c64 00       		.byte	0
 2287 0c65 1E       		.uleb128 0x1e
 2288 0c66 16010000 		.4byte	.LBB5
 2289 0c6a 0E000000 		.4byte	.LBE5-.LBB5
 2290 0c6e 920C0000 		.4byte	0xc92
 2291 0c72 1F       		.uleb128 0x1f
 2292 0c73 621E0000 		.4byte	.LASF314
 2293 0c77 01       		.byte	0x1
 2294 0c78 8D06     		.2byte	0x68d
 2295 0c7a 560E0000 		.4byte	0xe56
 2296 0c7e 02       		.uleb128 0x2
 2297 0c7f 91       		.byte	0x91
ARM GAS  C:\Users\ADMINI~1\AppData\Local\Temp\ccMaTind.s 			page 80


 2298 0c80 64       		.sleb128 -28
 2299 0c81 20       		.uleb128 0x20
 2300 0c82 24010000 		.4byte	.LVL35
 2301 0c86 A30F0000 		.4byte	0xfa3
 2302 0c8a 21       		.uleb128 0x21
 2303 0c8b 01       		.uleb128 0x1
 2304 0c8c 50       		.byte	0x50
 2305 0c8d 02       		.uleb128 0x2
 2306 0c8e 91       		.byte	0x91
 2307 0c8f 64       		.sleb128 -28
 2308 0c90 00       		.byte	0
 2309 0c91 00       		.byte	0
 2310 0c92 1E       		.uleb128 0x1e
 2311 0c93 34010000 		.4byte	.LBB6
 2312 0c97 28000000 		.4byte	.LBE6-.LBB6
 2313 0c9b CC0C0000 		.4byte	0xccc
 2314 0c9f 26       		.uleb128 0x26
 2315 0ca0 62030000 		.4byte	.LASF315
 2316 0ca4 01       		.byte	0x1
 2317 0ca5 A506     		.2byte	0x6a5
 2318 0ca7 660E0000 		.4byte	0xe66
 2319 0cab 00020000 		.4byte	.LLST8
 2320 0caf 29       		.uleb128 0x29
 2321 0cb0 42010000 		.4byte	.LBB7
 2322 0cb4 0E000000 		.4byte	.LBE7-.LBB7
 2323 0cb8 1F       		.uleb128 0x1f
 2324 0cb9 A7170000 		.4byte	.LASF316
 2325 0cbd 01       		.byte	0x1
 2326 0cbe AC06     		.2byte	0x6ac
 2327 0cc0 44090000 		.4byte	0x944
 2328 0cc4 05       		.uleb128 0x5
 2329 0cc5 03       		.byte	0x3
 2330 0cc6 00000000 		.4byte	gPrepWriteReqMem.6683
 2331 0cca 00       		.byte	0
 2332 0ccb 00       		.byte	0
 2333 0ccc 1E       		.uleb128 0x1e
 2334 0ccd 74010000 		.4byte	.LBB8
 2335 0cd1 2A000000 		.4byte	.LBE8-.LBB8
 2336 0cd5 120D0000 		.4byte	0xd12
 2337 0cd9 1F       		.uleb128 0x1f
 2338 0cda AD000000 		.4byte	.LASF317
 2339 0cde 01       		.byte	0x1
 2340 0cdf CE06     		.2byte	0x6ce
 2341 0ce1 6C030000 		.4byte	0x36c
 2342 0ce5 02       		.uleb128 0x2
 2343 0ce6 91       		.byte	0x91
 2344 0ce7 64       		.sleb128 -28
 2345 0ce8 22       		.uleb128 0x22
 2346 0ce9 7E010000 		.4byte	.LVL40
 2347 0ced AF0F0000 		.4byte	0xfaf
 2348 0cf1 FF0C0000 		.4byte	0xcff
 2349 0cf5 21       		.uleb128 0x21
 2350 0cf6 01       		.uleb128 0x1
 2351 0cf7 51       		.byte	0x51
 2352 0cf8 05       		.uleb128 0x5
 2353 0cf9 03       		.byte	0x3
 2354 0cfa 00000000 		.4byte	.LANCHOR1
ARM GAS  C:\Users\ADMINI~1\AppData\Local\Temp\ccMaTind.s 			page 81


 2355 0cfe 00       		.byte	0
 2356 0cff 2A       		.uleb128 0x2a
 2357 0d00 90010000 		.4byte	.LVL41
 2358 0d04 21       		.uleb128 0x21
 2359 0d05 01       		.uleb128 0x1
 2360 0d06 50       		.byte	0x50
 2361 0d07 02       		.uleb128 0x2
 2362 0d08 08       		.byte	0x8
 2363 0d09 36       		.byte	0x36
 2364 0d0a 21       		.uleb128 0x21
 2365 0d0b 01       		.uleb128 0x1
 2366 0d0c 51       		.byte	0x51
 2367 0d0d 02       		.uleb128 0x2
 2368 0d0e 91       		.byte	0x91
 2369 0d0f 64       		.sleb128 -28
 2370 0d10 00       		.byte	0
 2371 0d11 00       		.byte	0
 2372 0d12 1E       		.uleb128 0x1e
 2373 0d13 36020000 		.4byte	.LBB9
 2374 0d17 0E000000 		.4byte	.LBE9-.LBB9
 2375 0d1b 390D0000 		.4byte	0xd39
 2376 0d1f 26       		.uleb128 0x26
 2377 0d20 A5120000 		.4byte	.LASF318
 2378 0d24 01       		.byte	0x1
 2379 0d25 8B07     		.2byte	0x78b
 2380 0d27 77000000 		.4byte	0x77
 2381 0d2b 13020000 		.4byte	.LLST9
 2382 0d2f 1A       		.uleb128 0x1a
 2383 0d30 44020000 		.4byte	.LVL51
 2384 0d34 BB0F0000 		.4byte	0xfbb
 2385 0d38 00       		.byte	0
 2386 0d39 22       		.uleb128 0x22
 2387 0d3a 9C000000 		.4byte	.LVL25
 2388 0d3e 6F0B0000 		.4byte	0xb6f
 2389 0d42 4D0D0000 		.4byte	0xd4d
 2390 0d46 21       		.uleb128 0x21
 2391 0d47 01       		.uleb128 0x1
 2392 0d48 50       		.byte	0x50
 2393 0d49 02       		.uleb128 0x2
 2394 0d4a 76       		.byte	0x76
 2395 0d4b 00       		.sleb128 0
 2396 0d4c 00       		.byte	0
 2397 0d4d 22       		.uleb128 0x22
 2398 0d4e A6000000 		.4byte	.LVL26
 2399 0d52 C70F0000 		.4byte	0xfc7
 2400 0d56 610D0000 		.4byte	0xd61
 2401 0d5a 21       		.uleb128 0x21
 2402 0d5b 01       		.uleb128 0x1
 2403 0d5c 50       		.byte	0x50
 2404 0d5d 02       		.uleb128 0x2
 2405 0d5e 76       		.byte	0x76
 2406 0d5f 00       		.sleb128 0
 2407 0d60 00       		.byte	0
 2408 0d61 22       		.uleb128 0x22
 2409 0d62 B0000000 		.4byte	.LVL27
 2410 0d66 D30F0000 		.4byte	0xfd3
 2411 0d6a 740D0000 		.4byte	0xd74
ARM GAS  C:\Users\ADMINI~1\AppData\Local\Temp\ccMaTind.s 			page 82


 2412 0d6e 21       		.uleb128 0x21
 2413 0d6f 01       		.uleb128 0x1
 2414 0d70 51       		.byte	0x51
 2415 0d71 01       		.uleb128 0x1
 2416 0d72 30       		.byte	0x30
 2417 0d73 00       		.byte	0
 2418 0d74 22       		.uleb128 0x22
 2419 0d75 B8000000 		.4byte	.LVL28
 2420 0d79 D30F0000 		.4byte	0xfd3
 2421 0d7d 870D0000 		.4byte	0xd87
 2422 0d81 21       		.uleb128 0x21
 2423 0d82 01       		.uleb128 0x1
 2424 0d83 51       		.byte	0x51
 2425 0d84 01       		.uleb128 0x1
 2426 0d85 31       		.byte	0x31
 2427 0d86 00       		.byte	0
 2428 0d87 22       		.uleb128 0x22
 2429 0d88 00010000 		.4byte	.LVL31
 2430 0d8c C70F0000 		.4byte	0xfc7
 2431 0d90 9B0D0000 		.4byte	0xd9b
 2432 0d94 21       		.uleb128 0x21
 2433 0d95 01       		.uleb128 0x1
 2434 0d96 50       		.byte	0x50
 2435 0d97 02       		.uleb128 0x2
 2436 0d98 76       		.byte	0x76
 2437 0d99 00       		.sleb128 0
 2438 0d9a 00       		.byte	0
 2439 0d9b 22       		.uleb128 0x22
 2440 0d9c 08010000 		.4byte	.LVL32
 2441 0da0 D30F0000 		.4byte	0xfd3
 2442 0da4 B40D0000 		.4byte	0xdb4
 2443 0da8 21       		.uleb128 0x21
 2444 0da9 01       		.uleb128 0x1
 2445 0daa 50       		.byte	0x50
 2446 0dab 02       		.uleb128 0x2
 2447 0dac 76       		.byte	0x76
 2448 0dad 00       		.sleb128 0
 2449 0dae 21       		.uleb128 0x21
 2450 0daf 01       		.uleb128 0x1
 2451 0db0 51       		.byte	0x51
 2452 0db1 01       		.uleb128 0x1
 2453 0db2 30       		.byte	0x30
 2454 0db3 00       		.byte	0
 2455 0db4 22       		.uleb128 0x22
 2456 0db5 10010000 		.4byte	.LVL33
 2457 0db9 D30F0000 		.4byte	0xfd3
 2458 0dbd CD0D0000 		.4byte	0xdcd
 2459 0dc1 21       		.uleb128 0x21
 2460 0dc2 01       		.uleb128 0x1
 2461 0dc3 50       		.byte	0x50
 2462 0dc4 02       		.uleb128 0x2
 2463 0dc5 76       		.byte	0x76
 2464 0dc6 00       		.sleb128 0
 2465 0dc7 21       		.uleb128 0x21
 2466 0dc8 01       		.uleb128 0x1
 2467 0dc9 51       		.byte	0x51
 2468 0dca 01       		.uleb128 0x1
ARM GAS  C:\Users\ADMINI~1\AppData\Local\Temp\ccMaTind.s 			page 83


 2469 0dcb 31       		.byte	0x31
 2470 0dcc 00       		.byte	0
 2471 0dcd 22       		.uleb128 0x22
 2472 0dce 16010000 		.4byte	.LVL34
 2473 0dd2 DF0F0000 		.4byte	0xfdf
 2474 0dd6 E00D0000 		.4byte	0xde0
 2475 0dda 21       		.uleb128 0x21
 2476 0ddb 01       		.uleb128 0x1
 2477 0ddc 50       		.byte	0x50
 2478 0ddd 01       		.uleb128 0x1
 2479 0dde 30       		.byte	0x30
 2480 0ddf 00       		.byte	0
 2481 0de0 22       		.uleb128 0x22
 2482 0de1 12020000 		.4byte	.LVL44
 2483 0de5 EB0F0000 		.4byte	0xfeb
 2484 0de9 FF0D0000 		.4byte	0xdff
 2485 0ded 21       		.uleb128 0x21
 2486 0dee 01       		.uleb128 0x1
 2487 0def 50       		.byte	0x50
 2488 0df0 02       		.uleb128 0x2
 2489 0df1 76       		.byte	0x76
 2490 0df2 00       		.sleb128 0
 2491 0df3 21       		.uleb128 0x21
 2492 0df4 01       		.uleb128 0x1
 2493 0df5 51       		.byte	0x51
 2494 0df6 02       		.uleb128 0x2
 2495 0df7 75       		.byte	0x75
 2496 0df8 00       		.sleb128 0
 2497 0df9 21       		.uleb128 0x21
 2498 0dfa 01       		.uleb128 0x1
 2499 0dfb 52       		.byte	0x52
 2500 0dfc 01       		.uleb128 0x1
 2501 0dfd 32       		.byte	0x32
 2502 0dfe 00       		.byte	0
 2503 0dff 22       		.uleb128 0x22
 2504 0e00 2E020000 		.4byte	.LVL45
 2505 0e04 EB0F0000 		.4byte	0xfeb
 2506 0e08 120E0000 		.4byte	0xe12
 2507 0e0c 21       		.uleb128 0x21
 2508 0e0d 01       		.uleb128 0x1
 2509 0e0e 52       		.byte	0x52
 2510 0e0f 01       		.uleb128 0x1
 2511 0e10 32       		.byte	0x32
 2512 0e11 00       		.byte	0
 2513 0e12 1A       		.uleb128 0x1a
 2514 0e13 34020000 		.4byte	.LVL47
 2515 0e17 CB0A0000 		.4byte	0xacb
 2516 0e1b 22       		.uleb128 0x22
 2517 0e1c 4C020000 		.4byte	.LVL54
 2518 0e20 EB0A0000 		.4byte	0xaeb
 2519 0e24 2F0E0000 		.4byte	0xe2f
 2520 0e28 21       		.uleb128 0x21
 2521 0e29 01       		.uleb128 0x1
 2522 0e2a 50       		.byte	0x50
 2523 0e2b 02       		.uleb128 0x2
 2524 0e2c 75       		.byte	0x75
 2525 0e2d 00       		.sleb128 0
ARM GAS  C:\Users\ADMINI~1\AppData\Local\Temp\ccMaTind.s 			page 84


 2526 0e2e 00       		.byte	0
 2527 0e2f 22       		.uleb128 0x22
 2528 0e30 5C020000 		.4byte	.LVL57
 2529 0e34 F40F0000 		.4byte	0xff4
 2530 0e38 430E0000 		.4byte	0xe43
 2531 0e3c 21       		.uleb128 0x21
 2532 0e3d 01       		.uleb128 0x1
 2533 0e3e 50       		.byte	0x50
 2534 0e3f 02       		.uleb128 0x2
 2535 0e40 75       		.byte	0x75
 2536 0e41 00       		.sleb128 0
 2537 0e42 00       		.byte	0
 2538 0e43 2A       		.uleb128 0x2a
 2539 0e44 86020000 		.4byte	.LVL60
 2540 0e48 21       		.uleb128 0x21
 2541 0e49 01       		.uleb128 0x1
 2542 0e4a 50       		.byte	0x50
 2543 0e4b 02       		.uleb128 0x2
 2544 0e4c 74       		.byte	0x74
 2545 0e4d 00       		.sleb128 0
 2546 0e4e 21       		.uleb128 0x21
 2547 0e4f 01       		.uleb128 0x1
 2548 0e50 51       		.byte	0x51
 2549 0e51 02       		.uleb128 0x2
 2550 0e52 75       		.byte	0x75
 2551 0e53 00       		.sleb128 0
 2552 0e54 00       		.byte	0
 2553 0e55 00       		.byte	0
 2554 0e56 0F       		.uleb128 0xf
 2555 0e57 6B000000 		.4byte	0x6b
 2556 0e5b 660E0000 		.4byte	0xe66
 2557 0e5f 10       		.uleb128 0x10
 2558 0e60 B0000000 		.4byte	0xb0
 2559 0e64 01       		.byte	0x1
 2560 0e65 00       		.byte	0
 2561 0e66 07       		.uleb128 0x7
 2562 0e67 04       		.byte	0x4
 2563 0e68 7B040000 		.4byte	0x47b
 2564 0e6c 2B       		.uleb128 0x2b
 2565 0e6d 4C1C0000 		.4byte	.LASF319
 2566 0e71 08       		.byte	0x8
 2567 0e72 9B02     		.2byte	0x29b
 2568 0e74 B4090000 		.4byte	0x9b4
 2569 0e78 0F       		.uleb128 0xf
 2570 0e79 6B000000 		.4byte	0x6b
 2571 0e7d 890E0000 		.4byte	0xe89
 2572 0e81 18       		.uleb128 0x18
 2573 0e82 B0000000 		.4byte	0xb0
 2574 0e86 DF0A     		.2byte	0xadf
 2575 0e88 00       		.byte	0
 2576 0e89 2B       		.uleb128 0x2b
 2577 0e8a C9200000 		.4byte	.LASF320
 2578 0e8e 08       		.byte	0x8
 2579 0e8f A002     		.2byte	0x2a0
 2580 0e91 780E0000 		.4byte	0xe78
 2581 0e95 2C       		.uleb128 0x2c
 2582 0e96 7C0C0000 		.4byte	.LASF321
ARM GAS  C:\Users\ADMINI~1\AppData\Local\Temp\ccMaTind.s 			page 85


 2583 0e9a 01       		.byte	0x1
 2584 0e9b 3D       		.byte	0x3d
 2585 0e9c A4000000 		.4byte	0xa4
 2586 0ea0 05       		.uleb128 0x5
 2587 0ea1 03       		.byte	0x3
 2588 0ea2 00000000 		.4byte	cyBle_eventHandlerFlag
 2589 0ea6 2B       		.uleb128 0x2b
 2590 0ea7 40070000 		.4byte	.LASF322
 2591 0eab 08       		.byte	0x8
 2592 0eac A302     		.2byte	0x2a3
 2593 0eae BB040000 		.4byte	0x4bb
 2594 0eb2 2B       		.uleb128 0x2b
 2595 0eb3 6C0E0000 		.4byte	.LASF323
 2596 0eb7 08       		.byte	0x8
 2597 0eb8 A402     		.2byte	0x2a4
 2598 0eba BE0E0000 		.4byte	0xebe
 2599 0ebe 07       		.uleb128 0x7
 2600 0ebf 04       		.byte	0x4
 2601 0ec0 BB040000 		.4byte	0x4bb
 2602 0ec4 2C       		.uleb128 0x2c
 2603 0ec5 971E0000 		.4byte	.LASF324
 2604 0ec9 01       		.byte	0x1
 2605 0eca E1       		.byte	0xe1
 2606 0ecb 26060000 		.4byte	0x626
 2607 0ecf 05       		.uleb128 0x5
 2608 0ed0 03       		.byte	0x3
 2609 0ed1 00000000 		.4byte	cyBle_authInfo
 2610 0ed5 2B       		.uleb128 0x2b
 2611 0ed6 4E1D0000 		.4byte	.LASF325
 2612 0eda 08       		.byte	0x8
 2613 0edb C102     		.2byte	0x2c1
 2614 0edd 6B000000 		.4byte	0x6b
 2615 0ee1 2B       		.uleb128 0x2b
 2616 0ee2 00000000 		.4byte	.LASF326
 2617 0ee6 08       		.byte	0x8
 2618 0ee7 C702     		.2byte	0x2c7
 2619 0ee9 6B000000 		.4byte	0x6b
 2620 0eed 2D       		.uleb128 0x2d
 2621 0eee 1A220000 		.4byte	.LASF327
 2622 0ef2 09       		.byte	0x9
 2623 0ef3 ED       		.byte	0xed
 2624 0ef4 560E0000 		.4byte	0xe56
 2625 0ef8 2D       		.uleb128 0x2d
 2626 0ef9 72130000 		.4byte	.LASF328
 2627 0efd 09       		.byte	0x9
 2628 0efe F5       		.byte	0xf5
 2629 0eff 030F0000 		.4byte	0xf03
 2630 0f03 27       		.uleb128 0x27
 2631 0f04 240A0000 		.4byte	0xa24
 2632 0f08 2B       		.uleb128 0x2b
 2633 0f09 C61D0000 		.4byte	.LASF329
 2634 0f0d 0A       		.byte	0xa
 2635 0f0e B30A     		.2byte	0xab3
 2636 0f10 5B0A0000 		.4byte	0xa5b
 2637 0f14 2C       		.uleb128 0x2c
 2638 0f15 910D0000 		.4byte	.LASF330
 2639 0f19 01       		.byte	0x1
ARM GAS  C:\Users\ADMINI~1\AppData\Local\Temp\ccMaTind.s 			page 86


 2640 0f1a 3B       		.byte	0x3b
 2641 0f1b 6A080000 		.4byte	0x86a
 2642 0f1f 05       		.uleb128 0x5
 2643 0f20 03       		.byte	0x3
 2644 0f21 00000000 		.4byte	cyBle_connHandle
 2645 0f25 2C       		.uleb128 0x2c
 2646 0f26 5F120000 		.4byte	.LASF331
 2647 0f2a 01       		.byte	0x1
 2648 0f2b 3E       		.byte	0x3e
 2649 0f2c A4000000 		.4byte	0xa4
 2650 0f30 05       		.uleb128 0x5
 2651 0f31 03       		.byte	0x3
 2652 0f32 00000000 		.4byte	cyBle_busyStatus
 2653 0f36 2C       		.uleb128 0x2c
 2654 0f37 860D0000 		.4byte	.LASF332
 2655 0f3b 01       		.byte	0x1
 2656 0f3c 40       		.byte	0x40
 2657 0f3d 470F0000 		.4byte	0xf47
 2658 0f41 05       		.uleb128 0x5
 2659 0f42 03       		.byte	0x3
 2660 0f43 00000000 		.4byte	cyBle_gaps
 2661 0f47 27       		.uleb128 0x27
 2662 0f48 BF0A0000 		.4byte	0xabf
 2663 0f4c 2C       		.uleb128 0x2c
 2664 0f4d DE200000 		.4byte	.LASF333
 2665 0f51 01       		.byte	0x1
 2666 0f52 4C       		.byte	0x4c
 2667 0f53 6B000000 		.4byte	0x6b
 2668 0f57 05       		.uleb128 0x5
 2669 0f58 03       		.byte	0x3
 2670 0f59 00000000 		.4byte	cyBle_advertisingIntervalType
 2671 0f5d 2E       		.uleb128 0x2e
 2672 0f5e 84100000 		.4byte	.LASF334
 2673 0f62 84100000 		.4byte	.LASF334
 2674 0f66 0B       		.byte	0xb
 2675 0f67 6E       		.byte	0x6e
 2676 0f68 2F       		.uleb128 0x2f
 2677 0f69 69210000 		.4byte	.LASF335
 2678 0f6d 69210000 		.4byte	.LASF335
 2679 0f71 07       		.byte	0x7
 2680 0f72 4001     		.2byte	0x140
 2681 0f74 2E       		.uleb128 0x2e
 2682 0f75 10170000 		.4byte	.LASF336
 2683 0f79 10170000 		.4byte	.LASF336
 2684 0f7d 09       		.byte	0x9
 2685 0f7e D4       		.byte	0xd4
 2686 0f7f 2F       		.uleb128 0x2f
 2687 0f80 6A050000 		.4byte	.LASF337
 2688 0f84 6A050000 		.4byte	.LASF337
 2689 0f88 07       		.byte	0x7
 2690 0f89 C201     		.2byte	0x1c2
 2691 0f8b 2F       		.uleb128 0x2f
 2692 0f8c FB050000 		.4byte	.LASF338
 2693 0f90 FB050000 		.4byte	.LASF338
 2694 0f94 03       		.byte	0x3
 2695 0f95 7108     		.2byte	0x871
 2696 0f97 2F       		.uleb128 0x2f
ARM GAS  C:\Users\ADMINI~1\AppData\Local\Temp\ccMaTind.s 			page 87


 2697 0f98 D21D0000 		.4byte	.LASF339
 2698 0f9c D21D0000 		.4byte	.LASF339
 2699 0fa0 03       		.byte	0x3
 2700 0fa1 470C     		.2byte	0xc47
 2701 0fa3 2F       		.uleb128 0x2f
 2702 0fa4 D2130000 		.4byte	.LASF340
 2703 0fa8 D2130000 		.4byte	.LASF340
 2704 0fac 05       		.byte	0x5
 2705 0fad 2B0D     		.2byte	0xd2b
 2706 0faf 2F       		.uleb128 0x2f
 2707 0fb0 85130000 		.4byte	.LASF341
 2708 0fb4 85130000 		.4byte	.LASF341
 2709 0fb8 05       		.byte	0x5
 2710 0fb9 7808     		.2byte	0x878
 2711 0fbb 2F       		.uleb128 0x2f
 2712 0fbc E60E0000 		.4byte	.LASF342
 2713 0fc0 E60E0000 		.4byte	.LASF342
 2714 0fc4 07       		.byte	0x7
 2715 0fc5 7C01     		.2byte	0x17c
 2716 0fc7 2F       		.uleb128 0x2f
 2717 0fc8 5B000000 		.4byte	.LASF343
 2718 0fcc 5B000000 		.4byte	.LASF343
 2719 0fd0 03       		.byte	0x3
 2720 0fd1 F207     		.2byte	0x7f2
 2721 0fd3 2F       		.uleb128 0x2f
 2722 0fd4 70120000 		.4byte	.LASF344
 2723 0fd8 70120000 		.4byte	.LASF344
 2724 0fdc 08       		.byte	0x8
 2725 0fdd 8102     		.2byte	0x281
 2726 0fdf 2F       		.uleb128 0x2f
 2727 0fe0 9B000000 		.4byte	.LASF345
 2728 0fe4 9B000000 		.4byte	.LASF345
 2729 0fe8 05       		.byte	0x5
 2730 0fe9 DB04     		.2byte	0x4db
 2731 0feb 30       		.uleb128 0x30
 2732 0fec CC210000 		.4byte	.LASF352
 2733 0ff0 CC210000 		.4byte	.LASF352
 2734 0ff4 2E       		.uleb128 0x2e
 2735 0ff5 230D0000 		.4byte	.LASF346
 2736 0ff9 230D0000 		.4byte	.LASF346
 2737 0ffd 0B       		.byte	0xb
 2738 0ffe 6F       		.byte	0x6f
 2739 0fff 00       		.byte	0
 2740              		.section	.debug_abbrev,"",%progbits
 2741              	.Ldebug_abbrev0:
 2742 0000 01       		.uleb128 0x1
 2743 0001 11       		.uleb128 0x11
 2744 0002 01       		.byte	0x1
 2745 0003 25       		.uleb128 0x25
 2746 0004 0E       		.uleb128 0xe
 2747 0005 13       		.uleb128 0x13
 2748 0006 0B       		.uleb128 0xb
 2749 0007 03       		.uleb128 0x3
 2750 0008 0E       		.uleb128 0xe
 2751 0009 1B       		.uleb128 0x1b
 2752 000a 0E       		.uleb128 0xe
 2753 000b 55       		.uleb128 0x55
ARM GAS  C:\Users\ADMINI~1\AppData\Local\Temp\ccMaTind.s 			page 88


 2754 000c 17       		.uleb128 0x17
 2755 000d 11       		.uleb128 0x11
 2756 000e 01       		.uleb128 0x1
 2757 000f 10       		.uleb128 0x10
 2758 0010 17       		.uleb128 0x17
 2759 0011 00       		.byte	0
 2760 0012 00       		.byte	0
 2761 0013 02       		.uleb128 0x2
 2762 0014 24       		.uleb128 0x24
 2763 0015 00       		.byte	0
 2764 0016 0B       		.uleb128 0xb
 2765 0017 0B       		.uleb128 0xb
 2766 0018 3E       		.uleb128 0x3e
 2767 0019 0B       		.uleb128 0xb
 2768 001a 03       		.uleb128 0x3
 2769 001b 0E       		.uleb128 0xe
 2770 001c 00       		.byte	0
 2771 001d 00       		.byte	0
 2772 001e 03       		.uleb128 0x3
 2773 001f 24       		.uleb128 0x24
 2774 0020 00       		.byte	0
 2775 0021 0B       		.uleb128 0xb
 2776 0022 0B       		.uleb128 0xb
 2777 0023 3E       		.uleb128 0x3e
 2778 0024 0B       		.uleb128 0xb
 2779 0025 03       		.uleb128 0x3
 2780 0026 08       		.uleb128 0x8
 2781 0027 00       		.byte	0
 2782 0028 00       		.byte	0
 2783 0029 04       		.uleb128 0x4
 2784 002a 16       		.uleb128 0x16
 2785 002b 00       		.byte	0
 2786 002c 03       		.uleb128 0x3
 2787 002d 0E       		.uleb128 0xe
 2788 002e 3A       		.uleb128 0x3a
 2789 002f 0B       		.uleb128 0xb
 2790 0030 3B       		.uleb128 0x3b
 2791 0031 05       		.uleb128 0x5
 2792 0032 49       		.uleb128 0x49
 2793 0033 13       		.uleb128 0x13
 2794 0034 00       		.byte	0
 2795 0035 00       		.byte	0
 2796 0036 05       		.uleb128 0x5
 2797 0037 35       		.uleb128 0x35
 2798 0038 00       		.byte	0
 2799 0039 49       		.uleb128 0x49
 2800 003a 13       		.uleb128 0x13
 2801 003b 00       		.byte	0
 2802 003c 00       		.byte	0
 2803 003d 06       		.uleb128 0x6
 2804 003e 0F       		.uleb128 0xf
 2805 003f 00       		.byte	0
 2806 0040 0B       		.uleb128 0xb
 2807 0041 0B       		.uleb128 0xb
 2808 0042 00       		.byte	0
 2809 0043 00       		.byte	0
 2810 0044 07       		.uleb128 0x7
ARM GAS  C:\Users\ADMINI~1\AppData\Local\Temp\ccMaTind.s 			page 89


 2811 0045 0F       		.uleb128 0xf
 2812 0046 00       		.byte	0
 2813 0047 0B       		.uleb128 0xb
 2814 0048 0B       		.uleb128 0xb
 2815 0049 49       		.uleb128 0x49
 2816 004a 13       		.uleb128 0x13
 2817 004b 00       		.byte	0
 2818 004c 00       		.byte	0
 2819 004d 08       		.uleb128 0x8
 2820 004e 15       		.uleb128 0x15
 2821 004f 01       		.byte	0x1
 2822 0050 27       		.uleb128 0x27
 2823 0051 19       		.uleb128 0x19
 2824 0052 01       		.uleb128 0x1
 2825 0053 13       		.uleb128 0x13
 2826 0054 00       		.byte	0
 2827 0055 00       		.byte	0
 2828 0056 09       		.uleb128 0x9
 2829 0057 05       		.uleb128 0x5
 2830 0058 00       		.byte	0
 2831 0059 49       		.uleb128 0x49
 2832 005a 13       		.uleb128 0x13
 2833 005b 00       		.byte	0
 2834 005c 00       		.byte	0
 2835 005d 0A       		.uleb128 0xa
 2836 005e 04       		.uleb128 0x4
 2837 005f 01       		.byte	0x1
 2838 0060 0B       		.uleb128 0xb
 2839 0061 0B       		.uleb128 0xb
 2840 0062 49       		.uleb128 0x49
 2841 0063 13       		.uleb128 0x13
 2842 0064 3A       		.uleb128 0x3a
 2843 0065 0B       		.uleb128 0xb
 2844 0066 3B       		.uleb128 0x3b
 2845 0067 05       		.uleb128 0x5
 2846 0068 01       		.uleb128 0x1
 2847 0069 13       		.uleb128 0x13
 2848 006a 00       		.byte	0
 2849 006b 00       		.byte	0
 2850 006c 0B       		.uleb128 0xb
 2851 006d 28       		.uleb128 0x28
 2852 006e 00       		.byte	0
 2853 006f 03       		.uleb128 0x3
 2854 0070 0E       		.uleb128 0xe
 2855 0071 1C       		.uleb128 0x1c
 2856 0072 0B       		.uleb128 0xb
 2857 0073 00       		.byte	0
 2858 0074 00       		.byte	0
 2859 0075 0C       		.uleb128 0xc
 2860 0076 28       		.uleb128 0x28
 2861 0077 00       		.byte	0
 2862 0078 03       		.uleb128 0x3
 2863 0079 0E       		.uleb128 0xe
 2864 007a 1C       		.uleb128 0x1c
 2865 007b 05       		.uleb128 0x5
 2866 007c 00       		.byte	0
 2867 007d 00       		.byte	0
ARM GAS  C:\Users\ADMINI~1\AppData\Local\Temp\ccMaTind.s 			page 90


 2868 007e 0D       		.uleb128 0xd
 2869 007f 13       		.uleb128 0x13
 2870 0080 01       		.byte	0x1
 2871 0081 0B       		.uleb128 0xb
 2872 0082 0B       		.uleb128 0xb
 2873 0083 3A       		.uleb128 0x3a
 2874 0084 0B       		.uleb128 0xb
 2875 0085 3B       		.uleb128 0x3b
 2876 0086 05       		.uleb128 0x5
 2877 0087 01       		.uleb128 0x1
 2878 0088 13       		.uleb128 0x13
 2879 0089 00       		.byte	0
 2880 008a 00       		.byte	0
 2881 008b 0E       		.uleb128 0xe
 2882 008c 0D       		.uleb128 0xd
 2883 008d 00       		.byte	0
 2884 008e 03       		.uleb128 0x3
 2885 008f 0E       		.uleb128 0xe
 2886 0090 3A       		.uleb128 0x3a
 2887 0091 0B       		.uleb128 0xb
 2888 0092 3B       		.uleb128 0x3b
 2889 0093 05       		.uleb128 0x5
 2890 0094 49       		.uleb128 0x49
 2891 0095 13       		.uleb128 0x13
 2892 0096 38       		.uleb128 0x38
 2893 0097 0B       		.uleb128 0xb
 2894 0098 00       		.byte	0
 2895 0099 00       		.byte	0
 2896 009a 0F       		.uleb128 0xf
 2897 009b 01       		.uleb128 0x1
 2898 009c 01       		.byte	0x1
 2899 009d 49       		.uleb128 0x49
 2900 009e 13       		.uleb128 0x13
 2901 009f 01       		.uleb128 0x1
 2902 00a0 13       		.uleb128 0x13
 2903 00a1 00       		.byte	0
 2904 00a2 00       		.byte	0
 2905 00a3 10       		.uleb128 0x10
 2906 00a4 21       		.uleb128 0x21
 2907 00a5 00       		.byte	0
 2908 00a6 49       		.uleb128 0x49
 2909 00a7 13       		.uleb128 0x13
 2910 00a8 2F       		.uleb128 0x2f
 2911 00a9 0B       		.uleb128 0xb
 2912 00aa 00       		.byte	0
 2913 00ab 00       		.byte	0
 2914 00ac 11       		.uleb128 0x11
 2915 00ad 04       		.uleb128 0x4
 2916 00ae 01       		.byte	0x1
 2917 00af 0B       		.uleb128 0xb
 2918 00b0 0B       		.uleb128 0xb
 2919 00b1 49       		.uleb128 0x49
 2920 00b2 13       		.uleb128 0x13
 2921 00b3 3A       		.uleb128 0x3a
 2922 00b4 0B       		.uleb128 0xb
 2923 00b5 3B       		.uleb128 0x3b
 2924 00b6 0B       		.uleb128 0xb
ARM GAS  C:\Users\ADMINI~1\AppData\Local\Temp\ccMaTind.s 			page 91


 2925 00b7 01       		.uleb128 0x1
 2926 00b8 13       		.uleb128 0x13
 2927 00b9 00       		.byte	0
 2928 00ba 00       		.byte	0
 2929 00bb 12       		.uleb128 0x12
 2930 00bc 16       		.uleb128 0x16
 2931 00bd 00       		.byte	0
 2932 00be 03       		.uleb128 0x3
 2933 00bf 0E       		.uleb128 0xe
 2934 00c0 3A       		.uleb128 0x3a
 2935 00c1 0B       		.uleb128 0xb
 2936 00c2 3B       		.uleb128 0x3b
 2937 00c3 0B       		.uleb128 0xb
 2938 00c4 49       		.uleb128 0x49
 2939 00c5 13       		.uleb128 0x13
 2940 00c6 00       		.byte	0
 2941 00c7 00       		.byte	0
 2942 00c8 13       		.uleb128 0x13
 2943 00c9 0D       		.uleb128 0xd
 2944 00ca 00       		.byte	0
 2945 00cb 03       		.uleb128 0x3
 2946 00cc 08       		.uleb128 0x8
 2947 00cd 3A       		.uleb128 0x3a
 2948 00ce 0B       		.uleb128 0xb
 2949 00cf 3B       		.uleb128 0x3b
 2950 00d0 05       		.uleb128 0x5
 2951 00d1 49       		.uleb128 0x49
 2952 00d2 13       		.uleb128 0x13
 2953 00d3 38       		.uleb128 0x38
 2954 00d4 0B       		.uleb128 0xb
 2955 00d5 00       		.byte	0
 2956 00d6 00       		.byte	0
 2957 00d7 14       		.uleb128 0x14
 2958 00d8 13       		.uleb128 0x13
 2959 00d9 01       		.byte	0x1
 2960 00da 0B       		.uleb128 0xb
 2961 00db 0B       		.uleb128 0xb
 2962 00dc 3A       		.uleb128 0x3a
 2963 00dd 0B       		.uleb128 0xb
 2964 00de 3B       		.uleb128 0x3b
 2965 00df 0B       		.uleb128 0xb
 2966 00e0 01       		.uleb128 0x1
 2967 00e1 13       		.uleb128 0x13
 2968 00e2 00       		.byte	0
 2969 00e3 00       		.byte	0
 2970 00e4 15       		.uleb128 0x15
 2971 00e5 0D       		.uleb128 0xd
 2972 00e6 00       		.byte	0
 2973 00e7 03       		.uleb128 0x3
 2974 00e8 0E       		.uleb128 0xe
 2975 00e9 3A       		.uleb128 0x3a
 2976 00ea 0B       		.uleb128 0xb
 2977 00eb 3B       		.uleb128 0x3b
 2978 00ec 0B       		.uleb128 0xb
 2979 00ed 49       		.uleb128 0x49
 2980 00ee 13       		.uleb128 0x13
 2981 00ef 38       		.uleb128 0x38
ARM GAS  C:\Users\ADMINI~1\AppData\Local\Temp\ccMaTind.s 			page 92


 2982 00f0 0B       		.uleb128 0xb
 2983 00f1 00       		.byte	0
 2984 00f2 00       		.byte	0
 2985 00f3 16       		.uleb128 0x16
 2986 00f4 13       		.uleb128 0x13
 2987 00f5 01       		.byte	0x1
 2988 00f6 0B       		.uleb128 0xb
 2989 00f7 05       		.uleb128 0x5
 2990 00f8 3A       		.uleb128 0x3a
 2991 00f9 0B       		.uleb128 0xb
 2992 00fa 3B       		.uleb128 0x3b
 2993 00fb 0B       		.uleb128 0xb
 2994 00fc 01       		.uleb128 0x1
 2995 00fd 13       		.uleb128 0x13
 2996 00fe 00       		.byte	0
 2997 00ff 00       		.byte	0
 2998 0100 17       		.uleb128 0x17
 2999 0101 0D       		.uleb128 0xd
 3000 0102 00       		.byte	0
 3001 0103 03       		.uleb128 0x3
 3002 0104 0E       		.uleb128 0xe
 3003 0105 3A       		.uleb128 0x3a
 3004 0106 0B       		.uleb128 0xb
 3005 0107 3B       		.uleb128 0x3b
 3006 0108 0B       		.uleb128 0xb
 3007 0109 49       		.uleb128 0x49
 3008 010a 13       		.uleb128 0x13
 3009 010b 38       		.uleb128 0x38
 3010 010c 05       		.uleb128 0x5
 3011 010d 00       		.byte	0
 3012 010e 00       		.byte	0
 3013 010f 18       		.uleb128 0x18
 3014 0110 21       		.uleb128 0x21
 3015 0111 00       		.byte	0
 3016 0112 49       		.uleb128 0x49
 3017 0113 13       		.uleb128 0x13
 3018 0114 2F       		.uleb128 0x2f
 3019 0115 05       		.uleb128 0x5
 3020 0116 00       		.byte	0
 3021 0117 00       		.byte	0
 3022 0118 19       		.uleb128 0x19
 3023 0119 2E       		.uleb128 0x2e
 3024 011a 01       		.byte	0x1
 3025 011b 03       		.uleb128 0x3
 3026 011c 0E       		.uleb128 0xe
 3027 011d 3A       		.uleb128 0x3a
 3028 011e 0B       		.uleb128 0xb
 3029 011f 3B       		.uleb128 0x3b
 3030 0120 05       		.uleb128 0x5
 3031 0121 27       		.uleb128 0x27
 3032 0122 19       		.uleb128 0x19
 3033 0123 11       		.uleb128 0x11
 3034 0124 01       		.uleb128 0x1
 3035 0125 12       		.uleb128 0x12
 3036 0126 06       		.uleb128 0x6
 3037 0127 40       		.uleb128 0x40
 3038 0128 18       		.uleb128 0x18
ARM GAS  C:\Users\ADMINI~1\AppData\Local\Temp\ccMaTind.s 			page 93


 3039 0129 9742     		.uleb128 0x2117
 3040 012b 19       		.uleb128 0x19
 3041 012c 01       		.uleb128 0x1
 3042 012d 13       		.uleb128 0x13
 3043 012e 00       		.byte	0
 3044 012f 00       		.byte	0
 3045 0130 1A       		.uleb128 0x1a
 3046 0131 898201   		.uleb128 0x4109
 3047 0134 00       		.byte	0
 3048 0135 11       		.uleb128 0x11
 3049 0136 01       		.uleb128 0x1
 3050 0137 31       		.uleb128 0x31
 3051 0138 13       		.uleb128 0x13
 3052 0139 00       		.byte	0
 3053 013a 00       		.byte	0
 3054 013b 1B       		.uleb128 0x1b
 3055 013c 2E       		.uleb128 0x2e
 3056 013d 01       		.byte	0x1
 3057 013e 03       		.uleb128 0x3
 3058 013f 0E       		.uleb128 0xe
 3059 0140 3A       		.uleb128 0x3a
 3060 0141 0B       		.uleb128 0xb
 3061 0142 3B       		.uleb128 0x3b
 3062 0143 0B       		.uleb128 0xb
 3063 0144 27       		.uleb128 0x27
 3064 0145 19       		.uleb128 0x19
 3065 0146 11       		.uleb128 0x11
 3066 0147 01       		.uleb128 0x1
 3067 0148 12       		.uleb128 0x12
 3068 0149 06       		.uleb128 0x6
 3069 014a 40       		.uleb128 0x40
 3070 014b 18       		.uleb128 0x18
 3071 014c 9742     		.uleb128 0x2117
 3072 014e 19       		.uleb128 0x19
 3073 014f 01       		.uleb128 0x1
 3074 0150 13       		.uleb128 0x13
 3075 0151 00       		.byte	0
 3076 0152 00       		.byte	0
 3077 0153 1C       		.uleb128 0x1c
 3078 0154 05       		.uleb128 0x5
 3079 0155 00       		.byte	0
 3080 0156 03       		.uleb128 0x3
 3081 0157 0E       		.uleb128 0xe
 3082 0158 3A       		.uleb128 0x3a
 3083 0159 0B       		.uleb128 0xb
 3084 015a 3B       		.uleb128 0x3b
 3085 015b 0B       		.uleb128 0xb
 3086 015c 49       		.uleb128 0x49
 3087 015d 13       		.uleb128 0x13
 3088 015e 02       		.uleb128 0x2
 3089 015f 17       		.uleb128 0x17
 3090 0160 00       		.byte	0
 3091 0161 00       		.byte	0
 3092 0162 1D       		.uleb128 0x1d
 3093 0163 34       		.uleb128 0x34
 3094 0164 00       		.byte	0
 3095 0165 03       		.uleb128 0x3
ARM GAS  C:\Users\ADMINI~1\AppData\Local\Temp\ccMaTind.s 			page 94


 3096 0166 0E       		.uleb128 0xe
 3097 0167 3A       		.uleb128 0x3a
 3098 0168 0B       		.uleb128 0xb
 3099 0169 3B       		.uleb128 0x3b
 3100 016a 0B       		.uleb128 0xb
 3101 016b 49       		.uleb128 0x49
 3102 016c 13       		.uleb128 0x13
 3103 016d 02       		.uleb128 0x2
 3104 016e 17       		.uleb128 0x17
 3105 016f 00       		.byte	0
 3106 0170 00       		.byte	0
 3107 0171 1E       		.uleb128 0x1e
 3108 0172 0B       		.uleb128 0xb
 3109 0173 01       		.byte	0x1
 3110 0174 11       		.uleb128 0x11
 3111 0175 01       		.uleb128 0x1
 3112 0176 12       		.uleb128 0x12
 3113 0177 06       		.uleb128 0x6
 3114 0178 01       		.uleb128 0x1
 3115 0179 13       		.uleb128 0x13
 3116 017a 00       		.byte	0
 3117 017b 00       		.byte	0
 3118 017c 1F       		.uleb128 0x1f
 3119 017d 34       		.uleb128 0x34
 3120 017e 00       		.byte	0
 3121 017f 03       		.uleb128 0x3
 3122 0180 0E       		.uleb128 0xe
 3123 0181 3A       		.uleb128 0x3a
 3124 0182 0B       		.uleb128 0xb
 3125 0183 3B       		.uleb128 0x3b
 3126 0184 05       		.uleb128 0x5
 3127 0185 49       		.uleb128 0x49
 3128 0186 13       		.uleb128 0x13
 3129 0187 02       		.uleb128 0x2
 3130 0188 18       		.uleb128 0x18
 3131 0189 00       		.byte	0
 3132 018a 00       		.byte	0
 3133 018b 20       		.uleb128 0x20
 3134 018c 898201   		.uleb128 0x4109
 3135 018f 01       		.byte	0x1
 3136 0190 11       		.uleb128 0x11
 3137 0191 01       		.uleb128 0x1
 3138 0192 31       		.uleb128 0x31
 3139 0193 13       		.uleb128 0x13
 3140 0194 00       		.byte	0
 3141 0195 00       		.byte	0
 3142 0196 21       		.uleb128 0x21
 3143 0197 8A8201   		.uleb128 0x410a
 3144 019a 00       		.byte	0
 3145 019b 02       		.uleb128 0x2
 3146 019c 18       		.uleb128 0x18
 3147 019d 9142     		.uleb128 0x2111
 3148 019f 18       		.uleb128 0x18
 3149 01a0 00       		.byte	0
 3150 01a1 00       		.byte	0
 3151 01a2 22       		.uleb128 0x22
 3152 01a3 898201   		.uleb128 0x4109
ARM GAS  C:\Users\ADMINI~1\AppData\Local\Temp\ccMaTind.s 			page 95


 3153 01a6 01       		.byte	0x1
 3154 01a7 11       		.uleb128 0x11
 3155 01a8 01       		.uleb128 0x1
 3156 01a9 31       		.uleb128 0x31
 3157 01aa 13       		.uleb128 0x13
 3158 01ab 01       		.uleb128 0x1
 3159 01ac 13       		.uleb128 0x13
 3160 01ad 00       		.byte	0
 3161 01ae 00       		.byte	0
 3162 01af 23       		.uleb128 0x23
 3163 01b0 2E       		.uleb128 0x2e
 3164 01b1 01       		.byte	0x1
 3165 01b2 3F       		.uleb128 0x3f
 3166 01b3 19       		.uleb128 0x19
 3167 01b4 03       		.uleb128 0x3
 3168 01b5 0E       		.uleb128 0xe
 3169 01b6 3A       		.uleb128 0x3a
 3170 01b7 0B       		.uleb128 0xb
 3171 01b8 3B       		.uleb128 0x3b
 3172 01b9 05       		.uleb128 0x5
 3173 01ba 27       		.uleb128 0x27
 3174 01bb 19       		.uleb128 0x19
 3175 01bc 49       		.uleb128 0x49
 3176 01bd 13       		.uleb128 0x13
 3177 01be 11       		.uleb128 0x11
 3178 01bf 01       		.uleb128 0x1
 3179 01c0 12       		.uleb128 0x12
 3180 01c1 06       		.uleb128 0x6
 3181 01c2 40       		.uleb128 0x40
 3182 01c3 18       		.uleb128 0x18
 3183 01c4 9742     		.uleb128 0x2117
 3184 01c6 19       		.uleb128 0x19
 3185 01c7 01       		.uleb128 0x1
 3186 01c8 13       		.uleb128 0x13
 3187 01c9 00       		.byte	0
 3188 01ca 00       		.byte	0
 3189 01cb 24       		.uleb128 0x24
 3190 01cc 05       		.uleb128 0x5
 3191 01cd 00       		.byte	0
 3192 01ce 03       		.uleb128 0x3
 3193 01cf 0E       		.uleb128 0xe
 3194 01d0 3A       		.uleb128 0x3a
 3195 01d1 0B       		.uleb128 0xb
 3196 01d2 3B       		.uleb128 0x3b
 3197 01d3 05       		.uleb128 0x5
 3198 01d4 49       		.uleb128 0x49
 3199 01d5 13       		.uleb128 0x13
 3200 01d6 02       		.uleb128 0x2
 3201 01d7 17       		.uleb128 0x17
 3202 01d8 00       		.byte	0
 3203 01d9 00       		.byte	0
 3204 01da 25       		.uleb128 0x25
 3205 01db 34       		.uleb128 0x34
 3206 01dc 00       		.byte	0
 3207 01dd 03       		.uleb128 0x3
 3208 01de 08       		.uleb128 0x8
 3209 01df 3A       		.uleb128 0x3a
ARM GAS  C:\Users\ADMINI~1\AppData\Local\Temp\ccMaTind.s 			page 96


 3210 01e0 0B       		.uleb128 0xb
 3211 01e1 3B       		.uleb128 0x3b
 3212 01e2 05       		.uleb128 0x5
 3213 01e3 49       		.uleb128 0x49
 3214 01e4 13       		.uleb128 0x13
 3215 01e5 02       		.uleb128 0x2
 3216 01e6 17       		.uleb128 0x17
 3217 01e7 00       		.byte	0
 3218 01e8 00       		.byte	0
 3219 01e9 26       		.uleb128 0x26
 3220 01ea 34       		.uleb128 0x34
 3221 01eb 00       		.byte	0
 3222 01ec 03       		.uleb128 0x3
 3223 01ed 0E       		.uleb128 0xe
 3224 01ee 3A       		.uleb128 0x3a
 3225 01ef 0B       		.uleb128 0xb
 3226 01f0 3B       		.uleb128 0x3b
 3227 01f1 05       		.uleb128 0x5
 3228 01f2 49       		.uleb128 0x49
 3229 01f3 13       		.uleb128 0x13
 3230 01f4 02       		.uleb128 0x2
 3231 01f5 17       		.uleb128 0x17
 3232 01f6 00       		.byte	0
 3233 01f7 00       		.byte	0
 3234 01f8 27       		.uleb128 0x27
 3235 01f9 26       		.uleb128 0x26
 3236 01fa 00       		.byte	0
 3237 01fb 49       		.uleb128 0x49
 3238 01fc 13       		.uleb128 0x13
 3239 01fd 00       		.byte	0
 3240 01fe 00       		.byte	0
 3241 01ff 28       		.uleb128 0x28
 3242 0200 2E       		.uleb128 0x2e
 3243 0201 01       		.byte	0x1
 3244 0202 3F       		.uleb128 0x3f
 3245 0203 19       		.uleb128 0x19
 3246 0204 03       		.uleb128 0x3
 3247 0205 0E       		.uleb128 0xe
 3248 0206 3A       		.uleb128 0x3a
 3249 0207 0B       		.uleb128 0xb
 3250 0208 3B       		.uleb128 0x3b
 3251 0209 05       		.uleb128 0x5
 3252 020a 27       		.uleb128 0x27
 3253 020b 19       		.uleb128 0x19
 3254 020c 11       		.uleb128 0x11
 3255 020d 01       		.uleb128 0x1
 3256 020e 12       		.uleb128 0x12
 3257 020f 06       		.uleb128 0x6
 3258 0210 40       		.uleb128 0x40
 3259 0211 18       		.uleb128 0x18
 3260 0212 9742     		.uleb128 0x2117
 3261 0214 19       		.uleb128 0x19
 3262 0215 01       		.uleb128 0x1
 3263 0216 13       		.uleb128 0x13
 3264 0217 00       		.byte	0
 3265 0218 00       		.byte	0
 3266 0219 29       		.uleb128 0x29
ARM GAS  C:\Users\ADMINI~1\AppData\Local\Temp\ccMaTind.s 			page 97


 3267 021a 0B       		.uleb128 0xb
 3268 021b 01       		.byte	0x1
 3269 021c 11       		.uleb128 0x11
 3270 021d 01       		.uleb128 0x1
 3271 021e 12       		.uleb128 0x12
 3272 021f 06       		.uleb128 0x6
 3273 0220 00       		.byte	0
 3274 0221 00       		.byte	0
 3275 0222 2A       		.uleb128 0x2a
 3276 0223 898201   		.uleb128 0x4109
 3277 0226 01       		.byte	0x1
 3278 0227 11       		.uleb128 0x11
 3279 0228 01       		.uleb128 0x1
 3280 0229 00       		.byte	0
 3281 022a 00       		.byte	0
 3282 022b 2B       		.uleb128 0x2b
 3283 022c 34       		.uleb128 0x34
 3284 022d 00       		.byte	0
 3285 022e 03       		.uleb128 0x3
 3286 022f 0E       		.uleb128 0xe
 3287 0230 3A       		.uleb128 0x3a
 3288 0231 0B       		.uleb128 0xb
 3289 0232 3B       		.uleb128 0x3b
 3290 0233 05       		.uleb128 0x5
 3291 0234 49       		.uleb128 0x49
 3292 0235 13       		.uleb128 0x13
 3293 0236 3F       		.uleb128 0x3f
 3294 0237 19       		.uleb128 0x19
 3295 0238 3C       		.uleb128 0x3c
 3296 0239 19       		.uleb128 0x19
 3297 023a 00       		.byte	0
 3298 023b 00       		.byte	0
 3299 023c 2C       		.uleb128 0x2c
 3300 023d 34       		.uleb128 0x34
 3301 023e 00       		.byte	0
 3302 023f 03       		.uleb128 0x3
 3303 0240 0E       		.uleb128 0xe
 3304 0241 3A       		.uleb128 0x3a
 3305 0242 0B       		.uleb128 0xb
 3306 0243 3B       		.uleb128 0x3b
 3307 0244 0B       		.uleb128 0xb
 3308 0245 49       		.uleb128 0x49
 3309 0246 13       		.uleb128 0x13
 3310 0247 3F       		.uleb128 0x3f
 3311 0248 19       		.uleb128 0x19
 3312 0249 02       		.uleb128 0x2
 3313 024a 18       		.uleb128 0x18
 3314 024b 00       		.byte	0
 3315 024c 00       		.byte	0
 3316 024d 2D       		.uleb128 0x2d
 3317 024e 34       		.uleb128 0x34
 3318 024f 00       		.byte	0
 3319 0250 03       		.uleb128 0x3
 3320 0251 0E       		.uleb128 0xe
 3321 0252 3A       		.uleb128 0x3a
 3322 0253 0B       		.uleb128 0xb
 3323 0254 3B       		.uleb128 0x3b
ARM GAS  C:\Users\ADMINI~1\AppData\Local\Temp\ccMaTind.s 			page 98


 3324 0255 0B       		.uleb128 0xb
 3325 0256 49       		.uleb128 0x49
 3326 0257 13       		.uleb128 0x13
 3327 0258 3F       		.uleb128 0x3f
 3328 0259 19       		.uleb128 0x19
 3329 025a 3C       		.uleb128 0x3c
 3330 025b 19       		.uleb128 0x19
 3331 025c 00       		.byte	0
 3332 025d 00       		.byte	0
 3333 025e 2E       		.uleb128 0x2e
 3334 025f 2E       		.uleb128 0x2e
 3335 0260 00       		.byte	0
 3336 0261 3F       		.uleb128 0x3f
 3337 0262 19       		.uleb128 0x19
 3338 0263 3C       		.uleb128 0x3c
 3339 0264 19       		.uleb128 0x19
 3340 0265 6E       		.uleb128 0x6e
 3341 0266 0E       		.uleb128 0xe
 3342 0267 03       		.uleb128 0x3
 3343 0268 0E       		.uleb128 0xe
 3344 0269 3A       		.uleb128 0x3a
 3345 026a 0B       		.uleb128 0xb
 3346 026b 3B       		.uleb128 0x3b
 3347 026c 0B       		.uleb128 0xb
 3348 026d 00       		.byte	0
 3349 026e 00       		.byte	0
 3350 026f 2F       		.uleb128 0x2f
 3351 0270 2E       		.uleb128 0x2e
 3352 0271 00       		.byte	0
 3353 0272 3F       		.uleb128 0x3f
 3354 0273 19       		.uleb128 0x19
 3355 0274 3C       		.uleb128 0x3c
 3356 0275 19       		.uleb128 0x19
 3357 0276 6E       		.uleb128 0x6e
 3358 0277 0E       		.uleb128 0xe
 3359 0278 03       		.uleb128 0x3
 3360 0279 0E       		.uleb128 0xe
 3361 027a 3A       		.uleb128 0x3a
 3362 027b 0B       		.uleb128 0xb
 3363 027c 3B       		.uleb128 0x3b
 3364 027d 05       		.uleb128 0x5
 3365 027e 00       		.byte	0
 3366 027f 00       		.byte	0
 3367 0280 30       		.uleb128 0x30
 3368 0281 2E       		.uleb128 0x2e
 3369 0282 00       		.byte	0
 3370 0283 3F       		.uleb128 0x3f
 3371 0284 19       		.uleb128 0x19
 3372 0285 3C       		.uleb128 0x3c
 3373 0286 19       		.uleb128 0x19
 3374 0287 6E       		.uleb128 0x6e
 3375 0288 0E       		.uleb128 0xe
 3376 0289 03       		.uleb128 0x3
 3377 028a 0E       		.uleb128 0xe
 3378 028b 00       		.byte	0
 3379 028c 00       		.byte	0
 3380 028d 00       		.byte	0
ARM GAS  C:\Users\ADMINI~1\AppData\Local\Temp\ccMaTind.s 			page 99


 3381              		.section	.debug_loc,"",%progbits
 3382              	.Ldebug_loc0:
 3383              	.LLST0:
 3384 0000 00000000 		.4byte	.LVL1
 3385 0004 09000000 		.4byte	.LVL2-1
 3386 0008 0100     		.2byte	0x1
 3387 000a 50       		.byte	0x50
 3388 000b 09000000 		.4byte	.LVL2-1
 3389 000f 32000000 		.4byte	.LVL8
 3390 0013 0100     		.2byte	0x1
 3391 0015 54       		.byte	0x54
 3392 0016 32000000 		.4byte	.LVL8
 3393 001a 38000000 		.4byte	.LFE2
 3394 001e 0400     		.2byte	0x4
 3395 0020 F3       		.byte	0xf3
 3396 0021 01       		.uleb128 0x1
 3397 0022 50       		.byte	0x50
 3398 0023 9F       		.byte	0x9f
 3399 0024 00000000 		.4byte	0
 3400 0028 00000000 		.4byte	0
 3401              	.LLST1:
 3402 002c 0A000000 		.4byte	.LVL2
 3403 0030 24000000 		.4byte	.LVL3
 3404 0034 0100     		.2byte	0x1
 3405 0036 50       		.byte	0x50
 3406 0037 24000000 		.4byte	.LVL3
 3407 003b 27000000 		.4byte	.LVL4-1
 3408 003f 0200     		.2byte	0x2
 3409 0041 71       		.byte	0x71
 3410 0042 03       		.sleb128 3
 3411 0043 2A000000 		.4byte	.LVL5
 3412 0047 2C000000 		.4byte	.LVL6
 3413 004b 0100     		.2byte	0x1
 3414 004d 50       		.byte	0x50
 3415 004e 00000000 		.4byte	0
 3416 0052 00000000 		.4byte	0
 3417              	.LLST2:
 3418 0056 00000000 		.4byte	.LVL9
 3419 005a 08000000 		.4byte	.LVL10
 3420 005e 0100     		.2byte	0x1
 3421 0060 50       		.byte	0x50
 3422 0061 08000000 		.4byte	.LVL10
 3423 0065 0A000000 		.4byte	.LVL11
 3424 0069 0400     		.2byte	0x4
 3425 006b F3       		.byte	0xf3
 3426 006c 01       		.uleb128 0x1
 3427 006d 50       		.byte	0x50
 3428 006e 9F       		.byte	0x9f
 3429 006f 0A000000 		.4byte	.LVL11
 3430 0073 1E000000 		.4byte	.LVL16
 3431 0077 0100     		.2byte	0x1
 3432 0079 50       		.byte	0x50
 3433 007a 1E000000 		.4byte	.LVL16
 3434 007e 20000000 		.4byte	.LVL17
 3435 0082 0400     		.2byte	0x4
 3436 0084 F3       		.byte	0xf3
 3437 0085 01       		.uleb128 0x1
ARM GAS  C:\Users\ADMINI~1\AppData\Local\Temp\ccMaTind.s 			page 100


 3438 0086 50       		.byte	0x50
 3439 0087 9F       		.byte	0x9f
 3440 0088 20000000 		.4byte	.LVL17
 3441 008c 22000000 		.4byte	.LVL18
 3442 0090 0100     		.2byte	0x1
 3443 0092 50       		.byte	0x50
 3444 0093 22000000 		.4byte	.LVL18
 3445 0097 24000000 		.4byte	.LFE7
 3446 009b 0400     		.2byte	0x4
 3447 009d F3       		.byte	0xf3
 3448 009e 01       		.uleb128 0x1
 3449 009f 50       		.byte	0x50
 3450 00a0 9F       		.byte	0x9f
 3451 00a1 00000000 		.4byte	0
 3452 00a5 00000000 		.4byte	0
 3453              	.LLST3:
 3454 00a9 0A000000 		.4byte	.LVL11
 3455 00ad 12000000 		.4byte	.LVL12
 3456 00b1 0100     		.2byte	0x1
 3457 00b3 53       		.byte	0x53
 3458 00b4 14000000 		.4byte	.LVL13
 3459 00b8 16000000 		.4byte	.LVL14
 3460 00bc 0100     		.2byte	0x1
 3461 00be 53       		.byte	0x53
 3462 00bf 18000000 		.4byte	.LVL15
 3463 00c3 22000000 		.4byte	.LVL18
 3464 00c7 0100     		.2byte	0x1
 3465 00c9 53       		.byte	0x53
 3466 00ca 00000000 		.4byte	0
 3467 00ce 00000000 		.4byte	0
 3468              	.LLST4:
 3469 00d2 00000000 		.4byte	.LVL9
 3470 00d6 22000000 		.4byte	.LVL18
 3471 00da 0200     		.2byte	0x2
 3472 00dc 30       		.byte	0x30
 3473 00dd 9F       		.byte	0x9f
 3474 00de 22000000 		.4byte	.LVL18
 3475 00e2 24000000 		.4byte	.LFE7
 3476 00e6 0100     		.2byte	0x1
 3477 00e8 50       		.byte	0x50
 3478 00e9 00000000 		.4byte	0
 3479 00ed 00000000 		.4byte	0
 3480              	.LLST5:
 3481 00f1 00000000 		.4byte	.LVL19
 3482 00f5 7E000000 		.4byte	.LVL21
 3483 00f9 0100     		.2byte	0x1
 3484 00fb 50       		.byte	0x50
 3485 00fc 7E000000 		.4byte	.LVL21
 3486 0100 2C010000 		.4byte	.LVL36
 3487 0104 0400     		.2byte	0x4
 3488 0106 F3       		.byte	0xf3
 3489 0107 01       		.uleb128 0x1
 3490 0108 50       		.byte	0x50
 3491 0109 9F       		.byte	0x9f
 3492 010a 2C010000 		.4byte	.LVL36
 3493 010e 78010000 		.4byte	.LVL39
 3494 0112 0100     		.2byte	0x1
ARM GAS  C:\Users\ADMINI~1\AppData\Local\Temp\ccMaTind.s 			page 101


 3495 0114 50       		.byte	0x50
 3496 0115 78010000 		.4byte	.LVL39
 3497 0119 9E010000 		.4byte	.LVL42
 3498 011d 0400     		.2byte	0x4
 3499 011f F3       		.byte	0xf3
 3500 0120 01       		.uleb128 0x1
 3501 0121 50       		.byte	0x50
 3502 0122 9F       		.byte	0x9f
 3503 0123 9E010000 		.4byte	.LVL42
 3504 0127 0E020000 		.4byte	.LVL43
 3505 012b 0100     		.2byte	0x1
 3506 012d 50       		.byte	0x50
 3507 012e 0E020000 		.4byte	.LVL43
 3508 0132 30020000 		.4byte	.LVL46
 3509 0136 0400     		.2byte	0x4
 3510 0138 F3       		.byte	0xf3
 3511 0139 01       		.uleb128 0x1
 3512 013a 50       		.byte	0x50
 3513 013b 9F       		.byte	0x9f
 3514 013c 30020000 		.4byte	.LVL46
 3515 0140 33020000 		.4byte	.LVL47-1
 3516 0144 0100     		.2byte	0x1
 3517 0146 50       		.byte	0x50
 3518 0147 33020000 		.4byte	.LVL47-1
 3519 014b 36020000 		.4byte	.LVL48
 3520 014f 0400     		.2byte	0x4
 3521 0151 F3       		.byte	0xf3
 3522 0152 01       		.uleb128 0x1
 3523 0153 50       		.byte	0x50
 3524 0154 9F       		.byte	0x9f
 3525 0155 36020000 		.4byte	.LVL48
 3526 0159 40020000 		.4byte	.LVL50
 3527 015d 0100     		.2byte	0x1
 3528 015f 50       		.byte	0x50
 3529 0160 40020000 		.4byte	.LVL50
 3530 0164 46020000 		.4byte	.LVL52
 3531 0168 0400     		.2byte	0x4
 3532 016a F3       		.byte	0xf3
 3533 016b 01       		.uleb128 0x1
 3534 016c 50       		.byte	0x50
 3535 016d 9F       		.byte	0x9f
 3536 016e 46020000 		.4byte	.LVL52
 3537 0172 48020000 		.4byte	.LVL53
 3538 0176 0100     		.2byte	0x1
 3539 0178 50       		.byte	0x50
 3540 0179 48020000 		.4byte	.LVL53
 3541 017d 4E020000 		.4byte	.LVL55
 3542 0181 0400     		.2byte	0x4
 3543 0183 F3       		.byte	0xf3
 3544 0184 01       		.uleb128 0x1
 3545 0185 50       		.byte	0x50
 3546 0186 9F       		.byte	0x9f
 3547 0187 4E020000 		.4byte	.LVL55
 3548 018b 58020000 		.4byte	.LVL56
 3549 018f 0100     		.2byte	0x1
 3550 0191 50       		.byte	0x50
 3551 0192 58020000 		.4byte	.LVL56
ARM GAS  C:\Users\ADMINI~1\AppData\Local\Temp\ccMaTind.s 			page 102


 3552 0196 5E020000 		.4byte	.LVL58
 3553 019a 0400     		.2byte	0x4
 3554 019c F3       		.byte	0xf3
 3555 019d 01       		.uleb128 0x1
 3556 019e 50       		.byte	0x50
 3557 019f 9F       		.byte	0x9f
 3558 01a0 5E020000 		.4byte	.LVL58
 3559 01a4 68020000 		.4byte	.LVL59
 3560 01a8 0100     		.2byte	0x1
 3561 01aa 50       		.byte	0x50
 3562 01ab 68020000 		.4byte	.LVL59
 3563 01af D4020000 		.4byte	.LFE10
 3564 01b3 0400     		.2byte	0x4
 3565 01b5 F3       		.byte	0xf3
 3566 01b6 01       		.uleb128 0x1
 3567 01b7 50       		.byte	0x50
 3568 01b8 9F       		.byte	0x9f
 3569 01b9 00000000 		.4byte	0
 3570 01bd 00000000 		.4byte	0
 3571              	.LLST6:
 3572 01c1 00000000 		.4byte	.LVL19
 3573 01c5 0C000000 		.4byte	.LVL20
 3574 01c9 0100     		.2byte	0x1
 3575 01cb 51       		.byte	0x51
 3576 01cc 0C000000 		.4byte	.LVL20
 3577 01d0 88020000 		.4byte	.LVL61
 3578 01d4 0100     		.2byte	0x1
 3579 01d6 55       		.byte	0x55
 3580 01d7 88020000 		.4byte	.LVL61
 3581 01db D4020000 		.4byte	.LFE10
 3582 01df 0400     		.2byte	0x4
 3583 01e1 F3       		.byte	0xf3
 3584 01e2 01       		.uleb128 0x1
 3585 01e3 51       		.byte	0x51
 3586 01e4 9F       		.byte	0x9f
 3587 01e5 00000000 		.4byte	0
 3588 01e9 00000000 		.4byte	0
 3589              	.LLST7:
 3590 01ed EE000000 		.4byte	.LVL29
 3591 01f1 F8000000 		.4byte	.LVL30
 3592 01f5 0100     		.2byte	0x1
 3593 01f7 53       		.byte	0x53
 3594 01f8 00000000 		.4byte	0
 3595 01fc 00000000 		.4byte	0
 3596              	.LLST8:
 3597 0200 34010000 		.4byte	.LVL37
 3598 0204 5C010000 		.4byte	.LVL38
 3599 0208 0100     		.2byte	0x1
 3600 020a 55       		.byte	0x55
 3601 020b 00000000 		.4byte	0
 3602 020f 00000000 		.4byte	0
 3603              	.LLST9:
 3604 0213 3E020000 		.4byte	.LVL49
 3605 0217 43020000 		.4byte	.LVL51-1
 3606 021b 0100     		.2byte	0x1
 3607 021d 51       		.byte	0x51
 3608 021e 00000000 		.4byte	0
ARM GAS  C:\Users\ADMINI~1\AppData\Local\Temp\ccMaTind.s 			page 103


 3609 0222 00000000 		.4byte	0
 3610              		.section	.debug_aranges,"",%progbits
 3611 0000 34000000 		.4byte	0x34
 3612 0004 0200     		.2byte	0x2
 3613 0006 00000000 		.4byte	.Ldebug_info0
 3614 000a 04       		.byte	0x4
 3615 000b 00       		.byte	0
 3616 000c 0000     		.2byte	0
 3617 000e 0000     		.2byte	0
 3618 0010 00000000 		.4byte	.LFB4
 3619 0014 14000000 		.4byte	.LFE4-.LFB4
 3620 0018 00000000 		.4byte	.LFB2
 3621 001c 38000000 		.4byte	.LFE2-.LFB2
 3622 0020 00000000 		.4byte	.LFB7
 3623 0024 24000000 		.4byte	.LFE7-.LFB7
 3624 0028 00000000 		.4byte	.LFB10
 3625 002c D4020000 		.4byte	.LFE10-.LFB10
 3626 0030 00000000 		.4byte	0
 3627 0034 00000000 		.4byte	0
 3628              		.section	.debug_ranges,"",%progbits
 3629              	.Ldebug_ranges0:
 3630 0000 00000000 		.4byte	.LFB4
 3631 0004 14000000 		.4byte	.LFE4
 3632 0008 00000000 		.4byte	.LFB2
 3633 000c 38000000 		.4byte	.LFE2
 3634 0010 00000000 		.4byte	.LFB7
 3635 0014 24000000 		.4byte	.LFE7
 3636 0018 00000000 		.4byte	.LFB10
 3637 001c D4020000 		.4byte	.LFE10
 3638 0020 00000000 		.4byte	0
 3639 0024 00000000 		.4byte	0
 3640              		.section	.debug_line,"",%progbits
 3641              	.Ldebug_line0:
 3642 0000 E3010000 		.section	.debug_str,"MS",%progbits,1
 3642      0200FF00 
 3642      00000201 
 3642      FB0E0D00 
 3642      01010101 
 3643              	.LASF326:
 3644 0000 6379426C 		.ascii	"cyBle_peerBonding\000"
 3644      655F7065 
 3644      6572426F 
 3644      6E64696E 
 3644      6700
 3645              	.LASF253:
 3646 0012 4359424C 		.ascii	"CYBLE_GATT_ERR_INVALID_CRC\000"
 3646      455F4741 
 3646      54545F45 
 3646      52525F49 
 3646      4E56414C 
 3647              	.LASF16:
 3648 002d 73697A65 		.ascii	"sizetype\000"
 3648      74797065 
 3648      00
 3649              	.LASF187:
 3650 0036 656B6579 		.ascii	"ekeySize\000"
 3650      53697A65 
ARM GAS  C:\Users\ADMINI~1\AppData\Local\Temp\ccMaTind.s 			page 104


 3650      00
 3651              	.LASF222:
 3652 003f 4359424C 		.ascii	"CYBLE_GATT_HANDLE_VALUE_CNF\000"
 3652      455F4741 
 3652      54545F48 
 3652      414E444C 
 3652      455F5641 
 3653              	.LASF343:
 3654 005b 4379426C 		.ascii	"CyBle_SetDeviceAddress\000"
 3654      655F5365 
 3654      74446576 
 3654      69636541 
 3654      64647265 
 3655              	.LASF37:
 3656 0072 4359424C 		.ascii	"CYBLE_EVT_GAP_NUMERIC_COMPARISON_REQUEST\000"
 3656      455F4556 
 3656      545F4741 
 3656      505F4E55 
 3656      4D455249 
 3657              	.LASF345:
 3658 009b 4379426C 		.ascii	"CyBle_GapSetIoCap\000"
 3658      655F4761 
 3658      70536574 
 3658      496F4361 
 3658      7000
 3659              	.LASF317:
 3660 00ad 61706952 		.ascii	"apiResult\000"
 3660      6573756C 
 3660      7400
 3661              	.LASF305:
 3662 00b7 4379426C 		.ascii	"CyBle_WriteReqHandler\000"
 3662      655F5772 
 3662      69746552 
 3662      65714861 
 3662      6E646C65 
 3663              	.LASF144:
 3664 00cd 72657175 		.ascii	"request\000"
 3664      65737400 
 3665              	.LASF181:
 3666 00d5 4359424C 		.ascii	"CYBLE_GAP_AUTH_ERROR_CODE_SPEC_MAX_VALUE\000"
 3666      455F4741 
 3666      505F4155 
 3666      54485F45 
 3666      52524F52 
 3667              	.LASF308:
 3668 00fe 6576656E 		.ascii	"eventParam\000"
 3668      74506172 
 3668      616D00
 3669              	.LASF31:
 3670 0109 4359424C 		.ascii	"CYBLE_EVT_GAP_DEVICE_CONNECTED\000"
 3670      455F4556 
 3670      545F4741 
 3670      505F4445 
 3670      56494345 
 3671              	.LASF164:
 3672 0128 4359424C 		.ascii	"CYBLE_GAP_IOCAP_NOINPUT_NOOUTPUT\000"
 3672      455F4741 
ARM GAS  C:\Users\ADMINI~1\AppData\Local\Temp\ccMaTind.s 			page 105


 3672      505F494F 
 3672      4341505F 
 3672      4E4F494E 
 3673              	.LASF49:
 3674 0149 4359424C 		.ascii	"CYBLE_EVT_GATT_CONNECT_IND\000"
 3674      455F4556 
 3674      545F4741 
 3674      54545F43 
 3674      4F4E4E45 
 3675              	.LASF215:
 3676 0164 4359424C 		.ascii	"CYBLE_GATT_WRITE_CMD\000"
 3676      455F4741 
 3676      54545F57 
 3676      52495445 
 3676      5F434D44 
 3677              	.LASF11:
 3678 0179 75696E74 		.ascii	"uint32\000"
 3678      333200
 3679              	.LASF297:
 3680 0180 67617053 		.ascii	"gapServiceCharHandle\000"
 3680      65727669 
 3680      63654368 
 3680      61724861 
 3680      6E646C65 
 3681              	.LASF138:
 3682 0195 626C6550 		.ascii	"blePwrLevelInDbm\000"
 3682      77724C65 
 3682      76656C49 
 3682      6E44626D 
 3682      00
 3683              	.LASF227:
 3684 01a6 4359424C 		.ascii	"CYBLE_GATT_ERR_READ_NOT_PERMITTED\000"
 3684      455F4741 
 3684      54545F45 
 3684      52525F52 
 3684      4541445F 
 3685              	.LASF242:
 3686 01c8 4359424C 		.ascii	"CYBLE_GATT_ERR_INSUFFICIENT_RESOURCE\000"
 3686      455F4741 
 3686      54545F45 
 3686      52525F49 
 3686      4E535546 
 3687              	.LASF216:
 3688 01ed 4359424C 		.ascii	"CYBLE_GATT_PREPARE_WRITE_REQ\000"
 3688      455F4741 
 3688      54545F50 
 3688      52455041 
 3688      52455F57 
 3689              	.LASF241:
 3690 020a 4359424C 		.ascii	"CYBLE_GATT_ERR_UNSUPPORTED_GROUP_TYPE\000"
 3690      455F4741 
 3690      54545F45 
 3690      52525F55 
 3690      4E535550 
 3691              	.LASF105:
 3692 0230 4359424C 		.ascii	"CYBLE_ERROR_L2CAP_CONNECTION_ENTITY_NOT_FOUND\000"
 3692      455F4552 
ARM GAS  C:\Users\ADMINI~1\AppData\Local\Temp\ccMaTind.s 			page 106


 3692      524F525F 
 3692      4C324341 
 3692      505F434F 
 3693              	.LASF111:
 3694 025e 4359424C 		.ascii	"CYBLE_ERROR_MIC_AUTH_FAILED\000"
 3694      455F4552 
 3694      524F525F 
 3694      4D49435F 
 3694      41555448 
 3695              	.LASF69:
 3696 027a 4359424C 		.ascii	"CYBLE_EVT_GATTS_DATA_SIGNED_CMD_REQ\000"
 3696      455F4556 
 3696      545F4741 
 3696      5454535F 
 3696      44415441 
 3697              	.LASF81:
 3698 029e 4359424C 		.ascii	"CYBLE_EVT_L2CAP_CBFC_RX_CREDIT_IND\000"
 3698      455F4556 
 3698      545F4C32 
 3698      4341505F 
 3698      43424643 
 3699              	.LASF270:
 3700 02c1 4359424C 		.ascii	"CYBLE_GATT_VALUE_T\000"
 3700      455F4741 
 3700      54545F56 
 3700      414C5545 
 3700      5F5400
 3701              	.LASF347:
 3702 02d4 474E5520 		.ascii	"GNU C11 5.4.1 20160609 (release) [ARM/embedded-5-br"
 3702      43313120 
 3702      352E342E 
 3702      31203230 
 3702      31363036 
 3703 0307 616E6368 		.ascii	"anch revision 237715] -mcpu=cortex-m0 -mthumb -g -O"
 3703      20726576 
 3703      6973696F 
 3703      6E203233 
 3703      37373135 
 3704 033a 67202D66 		.ascii	"g -ffunction-sections -ffat-lto-objects\000"
 3704      66756E63 
 3704      74696F6E 
 3704      2D736563 
 3704      74696F6E 
 3705              	.LASF315:
 3706 0362 6D656D52 		.ascii	"memReq\000"
 3706      657100
 3707              	.LASF210:
 3708 0369 4359424C 		.ascii	"CYBLE_GATT_READ_MULTIPLE_RSP\000"
 3708      455F4741 
 3708      54545F52 
 3708      4541445F 
 3708      4D554C54 
 3709              	.LASF149:
 3710 0386 74797065 		.ascii	"type\000"
 3710      00
 3711              	.LASF155:
 3712 038b 4359424C 		.ascii	"CYBLE_TO_REASON_CODE_T\000"
ARM GAS  C:\Users\ADMINI~1\AppData\Local\Temp\ccMaTind.s 			page 107


 3712      455F544F 
 3712      5F524541 
 3712      534F4E5F 
 3712      434F4445 
 3713              	.LASF243:
 3714 03a2 4359424C 		.ascii	"CYBLE_GATT_ERR_TRIGGER_CODITION_VALUE_NOT_SUPPORTED"
 3714      455F4741 
 3714      54545F45 
 3714      52525F54 
 3714      52494747 
 3715 03d5 00       		.ascii	"\000"
 3716              	.LASF182:
 3717 03d6 4359424C 		.ascii	"CYBLE_GAP_AUTH_ERROR_AUTHENTICATION_TIMEOUT\000"
 3717      455F4741 
 3717      505F4155 
 3717      54485F45 
 3717      52524F52 
 3718              	.LASF174:
 3719 0402 4359424C 		.ascii	"CYBLE_GAP_AUTH_ERROR_UNSPECIFIED_REASON\000"
 3719      455F4741 
 3719      505F4155 
 3719      54485F45 
 3719      52524F52 
 3720              	.LASF204:
 3721 042a 4359424C 		.ascii	"CYBLE_GATT_READ_BY_TYPE_RSP\000"
 3721      455F4741 
 3721      54545F52 
 3721      4541445F 
 3721      42595F54 
 3722              	.LASF285:
 3723 0446 4359424C 		.ascii	"CYBLE_CALLBACK_T\000"
 3723      455F4341 
 3723      4C4C4241 
 3723      434B5F54 
 3723      00
 3724              	.LASF66:
 3725 0457 4359424C 		.ascii	"CYBLE_EVT_GATTC_HANDLE_VALUE_NTF\000"
 3725      455F4556 
 3725      545F4741 
 3725      5454435F 
 3725      48414E44 
 3726              	.LASF25:
 3727 0478 4359424C 		.ascii	"CYBLE_EVT_GAP_AUTH_REQ\000"
 3727      455F4556 
 3727      545F4741 
 3727      505F4155 
 3727      54485F52 
 3728              	.LASF268:
 3729 048f 4359424C 		.ascii	"CYBLE_CONN_HANDLE_T\000"
 3729      455F434F 
 3729      4E4E5F48 
 3729      414E444C 
 3729      455F5400 
 3730              	.LASF100:
 3731 04a3 4359424C 		.ascii	"CYBLE_ERROR_BT_ON_NOT_COMPLETED\000"
 3731      455F4552 
 3731      524F525F 
ARM GAS  C:\Users\ADMINI~1\AppData\Local\Temp\ccMaTind.s 			page 108


 3731      42545F4F 
 3731      4E5F4E4F 
 3732              	.LASF161:
 3733 04c3 4359424C 		.ascii	"CYBLE_GAP_IOCAP_DISPLAY_ONLY\000"
 3733      455F4741 
 3733      505F494F 
 3733      4341505F 
 3733      44495350 
 3734              	.LASF46:
 3735 04e0 4359424C 		.ascii	"CYBLE_EVT_GAP_AUTH_REQ_REPLY_ERR\000"
 3735      455F4556 
 3735      545F4741 
 3735      505F4155 
 3735      54485F52 
 3736              	.LASF127:
 3737 0501 4359424C 		.ascii	"CYBLE_LL_PWR_LVL_NEG_3_DBM\000"
 3737      455F4C4C 
 3737      5F505752 
 3737      5F4C564C 
 3737      5F4E4547 
 3738              	.LASF310:
 3739 051c 61646472 		.ascii	"addressValid\000"
 3739      65737356 
 3739      616C6964 
 3739      00
 3740              	.LASF294:
 3741 0529 4359424C 		.ascii	"CYBLE_STATE_ADVERTISING\000"
 3741      455F5354 
 3741      4154455F 
 3741      41445645 
 3741      52544953 
 3742              	.LASF39:
 3743 0541 4359424C 		.ascii	"CYBLE_EVT_GAP_OOB_GENERATED_NOTIFICATION\000"
 3743      455F4556 
 3743      545F4741 
 3743      505F4F4F 
 3743      425F4745 
 3744              	.LASF337:
 3745 056a 4379426C 		.ascii	"CyBle_GattsWriteRsp\000"
 3745      655F4761 
 3745      74747357 
 3745      72697465 
 3745      52737000 
 3746              	.LASF266:
 3747 057e 62644861 		.ascii	"bdHandle\000"
 3747      6E646C65 
 3747      00
 3748              	.LASF255:
 3749 0587 4359424C 		.ascii	"CYBLE_GATTS_ERR_NETWORK_NOT_AVAILABLE\000"
 3749      455F4741 
 3749      5454535F 
 3749      4552525F 
 3749      4E455457 
 3750              	.LASF167:
 3751 05ad 4359424C 		.ascii	"CYBLE_GAP_AUTH_ERROR_PASSKEY_ENTRY_FAILED\000"
 3751      455F4741 
 3751      505F4155 
ARM GAS  C:\Users\ADMINI~1\AppData\Local\Temp\ccMaTind.s 			page 109


 3751      54485F45 
 3751      52524F52 
 3752              	.LASF258:
 3753 05d7 4359424C 		.ascii	"CYBLE_GATT_ERR_ANCS_INVALID_COMMAND\000"
 3753      455F4741 
 3753      54545F45 
 3753      52525F41 
 3753      4E43535F 
 3754              	.LASF338:
 3755 05fb 4379426C 		.ascii	"CyBle_SetTxPowerLevel\000"
 3755      655F5365 
 3755      74547850 
 3755      6F776572 
 3755      4C657665 
 3756              	.LASF125:
 3757 0611 4359424C 		.ascii	"CYBLE_LL_PWR_LVL_NEG_12_DBM\000"
 3757      455F4C4C 
 3757      5F505752 
 3757      5F4C564C 
 3757      5F4E4547 
 3758              	.LASF198:
 3759 062d 4359424C 		.ascii	"CYBLE_GATT_XCHNG_MTU_RSP\000"
 3759      455F4741 
 3759      54545F58 
 3759      43484E47 
 3759      5F4D5455 
 3760              	.LASF62:
 3761 0646 4359424C 		.ascii	"CYBLE_EVT_GATTS_WRITE_CMD_REQ\000"
 3761      455F4556 
 3761      545F4741 
 3761      5454535F 
 3761      57524954 
 3762              	.LASF82:
 3763 0664 4359424C 		.ascii	"CYBLE_EVT_L2CAP_CBFC_TX_CREDIT_IND\000"
 3763      455F4556 
 3763      545F4C32 
 3763      4341505F 
 3763      43424643 
 3764              	.LASF4:
 3765 0687 6C6F6E67 		.ascii	"long int\000"
 3765      20696E74 
 3765      00
 3766              	.LASF156:
 3767 0690 4359424C 		.ascii	"CYBLE_GAP_SEC_LEVEL_1\000"
 3767      455F4741 
 3767      505F5345 
 3767      435F4C45 
 3767      56454C5F 
 3768              	.LASF157:
 3769 06a6 4359424C 		.ascii	"CYBLE_GAP_SEC_LEVEL_2\000"
 3769      455F4741 
 3769      505F5345 
 3769      435F4C45 
 3769      56454C5F 
 3770              	.LASF158:
 3771 06bc 4359424C 		.ascii	"CYBLE_GAP_SEC_LEVEL_3\000"
 3771      455F4741 
ARM GAS  C:\Users\ADMINI~1\AppData\Local\Temp\ccMaTind.s 			page 110


 3771      505F5345 
 3771      435F4C45 
 3771      56454C5F 
 3772              	.LASF159:
 3773 06d2 4359424C 		.ascii	"CYBLE_GAP_SEC_LEVEL_4\000"
 3773      455F4741 
 3773      505F5345 
 3773      435F4C45 
 3773      56454C5F 
 3774              	.LASF202:
 3775 06e8 4359424C 		.ascii	"CYBLE_GATT_FIND_BY_TYPE_VALUE_RSP\000"
 3775      455F4741 
 3775      54545F46 
 3775      494E445F 
 3775      42595F54 
 3776              	.LASF18:
 3777 070a 4359424C 		.ascii	"CYBLE_EVT_STACK_ON\000"
 3777      455F4556 
 3777      545F5354 
 3777      41434B5F 
 3777      4F4E00
 3778              	.LASF107:
 3779 071d 4359424C 		.ascii	"CYBLE_ERROR_L2CAP_PSM_NOT_IN_RANGE\000"
 3779      455F4552 
 3779      524F525F 
 3779      4C324341 
 3779      505F5053 
 3780              	.LASF322:
 3781 0740 6379426C 		.ascii	"cyBle_deviceAddress\000"
 3781      655F6465 
 3781      76696365 
 3781      41646472 
 3781      65737300 
 3782              	.LASF254:
 3783 0754 4359424C 		.ascii	"CYBLE_GATTS_ERR_HPS_INVALID_REQUEST\000"
 3783      455F4741 
 3783      5454535F 
 3783      4552525F 
 3783      4850535F 
 3784              	.LASF229:
 3785 0778 4359424C 		.ascii	"CYBLE_GATT_ERR_INVALID_PDU\000"
 3785      455F4741 
 3785      54545F45 
 3785      52525F49 
 3785      4E56414C 
 3786              	.LASF170:
 3787 0793 4359424C 		.ascii	"CYBLE_GAP_AUTH_ERROR_CONFIRM_VALUE_NOT_MATCH\000"
 3787      455F4741 
 3787      505F4155 
 3787      54485F45 
 3787      52524F52 
 3788              	.LASF120:
 3789 07c0 4359424C 		.ascii	"CYBLE_ERROR_CHAR_IS_NOT_DISCOVERED\000"
 3789      455F4552 
 3789      524F525F 
 3789      43484152 
 3789      5F49535F 
ARM GAS  C:\Users\ADMINI~1\AppData\Local\Temp\ccMaTind.s 			page 111


 3790              	.LASF273:
 3791 07e3 4359424C 		.ascii	"CYBLE_GATT_HANDLE_VALUE_PAIR_T\000"
 3791      455F4741 
 3791      54545F48 
 3791      414E444C 
 3791      455F5641 
 3792              	.LASF139:
 3793 0802 626C6553 		.ascii	"bleSsChId\000"
 3793      73436849 
 3793      6400
 3794              	.LASF75:
 3795 080c 4359424C 		.ascii	"CYBLE_EVT_L2CAP_COMMAND_REJ\000"
 3795      455F4556 
 3795      545F4C32 
 3795      4341505F 
 3795      434F4D4D 
 3796              	.LASF302:
 3797 0828 7270614F 		.ascii	"rpaOnlyCharHandle\000"
 3797      6E6C7943 
 3797      68617248 
 3797      616E646C 
 3797      6500
 3798              	.LASF208:
 3799 083a 4359424C 		.ascii	"CYBLE_GATT_READ_BLOB_RSP\000"
 3799      455F4741 
 3799      54545F52 
 3799      4541445F 
 3799      424C4F42 
 3800              	.LASF238:
 3801 0853 4359424C 		.ascii	"CYBLE_GATT_ERR_INVALID_ATTRIBUTE_LEN\000"
 3801      455F4741 
 3801      54545F45 
 3801      52525F49 
 3801      4E56414C 
 3802              	.LASF108:
 3803 0878 4359424C 		.ascii	"CYBLE_ERROR_GATT_DB_INVALID_ATTR_HANDLE\000"
 3803      455F4552 
 3803      524F525F 
 3803      47415454 
 3803      5F44425F 
 3804              	.LASF0:
 3805 08a0 7369676E 		.ascii	"signed char\000"
 3805      65642063 
 3805      68617200 
 3806              	.LASF124:
 3807 08ac 4359424C 		.ascii	"CYBLE_LL_PWR_LVL_NEG_18_DBM\000"
 3807      455F4C4C 
 3807      5F505752 
 3807      5F4C564C 
 3807      5F4E4547 
 3808              	.LASF199:
 3809 08c8 4359424C 		.ascii	"CYBLE_GATT_FIND_INFO_REQ\000"
 3809      455F4741 
 3809      54545F46 
 3809      494E445F 
 3809      494E464F 
 3810              	.LASF20:
ARM GAS  C:\Users\ADMINI~1\AppData\Local\Temp\ccMaTind.s 			page 112


 3811 08e1 4359424C 		.ascii	"CYBLE_EVT_HARDWARE_ERROR\000"
 3811      455F4556 
 3811      545F4841 
 3811      52445741 
 3811      52455F45 
 3812              	.LASF351:
 3813 08fa 4379426C 		.ascii	"CyBle_EventHandler\000"
 3813      655F4576 
 3813      656E7448 
 3813      616E646C 
 3813      657200
 3814              	.LASF89:
 3815 090d 4359424C 		.ascii	"CYBLE_ERROR_OK\000"
 3815      455F4552 
 3815      524F525F 
 3815      4F4B00
 3816              	.LASF137:
 3817 091c 4359424C 		.ascii	"CYBLE_BLESS_PHY_CH_GRP_ID_T\000"
 3817      455F424C 
 3817      4553535F 
 3817      5048595F 
 3817      43485F47 
 3818              	.LASF261:
 3819 0938 4359424C 		.ascii	"CYBLE_GATT_ERR_CCCD_IMPROPERLY_CONFIGURED\000"
 3819      455F4741 
 3819      54545F45 
 3819      52525F43 
 3819      4343445F 
 3820              	.LASF53:
 3821 0962 4359424C 		.ascii	"CYBLE_EVT_GATTC_READ_BY_GROUP_TYPE_RSP\000"
 3821      455F4556 
 3821      545F4741 
 3821      5454435F 
 3821      52454144 
 3822              	.LASF180:
 3823 0989 4359424C 		.ascii	"CYBLE_GAP_AUTH_ERROR_CROSS_TRANSPORT_KEY_GEN_DER_NO"
 3823      455F4741 
 3823      505F4155 
 3823      54485F45 
 3823      52524F52 
 3824 09bc 545F414C 		.ascii	"T_ALLOWED\000"
 3824      4C4F5745 
 3824      4400
 3825              	.LASF291:
 3826 09c6 4359424C 		.ascii	"CYBLE_STATE_STOPPED\000"
 3826      455F5354 
 3826      4154455F 
 3826      53544F50 
 3826      50454400 
 3827              	.LASF282:
 3828 09da 4359424C 		.ascii	"CYBLE_GATTS_ERR_PARAM_T\000"
 3828      455F4741 
 3828      5454535F 
 3828      4552525F 
 3828      50415241 
 3829              	.LASF1:
 3830 09f2 756E7369 		.ascii	"unsigned char\000"
ARM GAS  C:\Users\ADMINI~1\AppData\Local\Temp\ccMaTind.s 			page 113


 3830      676E6564 
 3830      20636861 
 3830      7200
 3831              	.LASF52:
 3832 0a00 4359424C 		.ascii	"CYBLE_EVT_GATTC_XCHNG_MTU_RSP\000"
 3832      455F4556 
 3832      545F4741 
 3832      5454435F 
 3832      5843484E 
 3833              	.LASF221:
 3834 0a1e 4359424C 		.ascii	"CYBLE_GATT_HANDLE_VALUE_IND\000"
 3834      455F4741 
 3834      54545F48 
 3834      414E444C 
 3834      455F5641 
 3835              	.LASF43:
 3836 0a3a 4359424C 		.ascii	"CYBLE_EVT_GAP_SMP_NEGOTIATED_AUTH_INFO\000"
 3836      455F4556 
 3836      545F4741 
 3836      505F534D 
 3836      505F4E45 
 3837              	.LASF44:
 3838 0a61 4359424C 		.ascii	"CYBLE_EVT_GAP_CONN_ESTB\000"
 3838      455F4556 
 3838      545F4741 
 3838      505F434F 
 3838      4E4E5F45 
 3839              	.LASF281:
 3840 0a79 6572726F 		.ascii	"errorCode\000"
 3840      72436F64 
 3840      6500
 3841              	.LASF176:
 3842 0a83 4359424C 		.ascii	"CYBLE_GAP_AUTH_ERROR_INVALID_PARAMETERS\000"
 3842      455F4741 
 3842      505F4155 
 3842      54485F45 
 3842      52524F52 
 3843              	.LASF146:
 3844 0aab 636F6E66 		.ascii	"configMemory\000"
 3844      69674D65 
 3844      6D6F7279 
 3844      00
 3845              	.LASF79:
 3846 0ab8 4359424C 		.ascii	"CYBLE_EVT_L2CAP_CBFC_DISCONN_CNF\000"
 3846      455F4556 
 3846      545F4C32 
 3846      4341505F 
 3846      43424643 
 3847              	.LASF56:
 3848 0ad9 4359424C 		.ascii	"CYBLE_EVT_GATTC_FIND_BY_TYPE_VALUE_RSP\000"
 3848      455F4556 
 3848      545F4741 
 3848      5454435F 
 3848      46494E44 
 3849              	.LASF40:
 3850 0b00 4359424C 		.ascii	"CYBLE_EVT_GAP_DATA_LENGTH_CHANGE\000"
 3850      455F4556 
ARM GAS  C:\Users\ADMINI~1\AppData\Local\Temp\ccMaTind.s 			page 114


 3850      545F4741 
 3850      505F4441 
 3850      54415F4C 
 3851              	.LASF14:
 3852 0b21 63686172 		.ascii	"char\000"
 3852      00
 3853              	.LASF128:
 3854 0b26 4359424C 		.ascii	"CYBLE_LL_PWR_LVL_NEG_2_DBM\000"
 3854      455F4C4C 
 3854      5F505752 
 3854      5F4C564C 
 3854      5F4E4547 
 3855              	.LASF214:
 3856 0b41 4359424C 		.ascii	"CYBLE_GATT_WRITE_RSP\000"
 3856      455F4741 
 3856      54545F57 
 3856      52495445 
 3856      5F525350 
 3857              	.LASF59:
 3858 0b56 4359424C 		.ascii	"CYBLE_EVT_GATTC_READ_MULTI_RSP\000"
 3858      455F4556 
 3858      545F4741 
 3858      5454435F 
 3858      52454144 
 3859              	.LASF190:
 3860 0b75 4359424C 		.ascii	"CYBLE_GAP_AUTH_INFO_T\000"
 3860      455F4741 
 3860      505F4155 
 3860      54485F49 
 3860      4E464F5F 
 3861              	.LASF163:
 3862 0b8b 4359424C 		.ascii	"CYBLE_GAP_IOCAP_KEYBOARD_ONLY\000"
 3862      455F4741 
 3862      505F494F 
 3862      4341505F 
 3862      4B455942 
 3863              	.LASF17:
 3864 0ba9 4359424C 		.ascii	"CYBLE_EVT_HOST_INVALID\000"
 3864      455F4556 
 3864      545F484F 
 3864      53545F49 
 3864      4E56414C 
 3865              	.LASF250:
 3866 0bc0 4359424C 		.ascii	"CYBLE_GATT_ERR_MISSING_CRC\000"
 3866      455F4741 
 3866      54545F45 
 3866      52525F4D 
 3866      49535349 
 3867              	.LASF239:
 3868 0bdb 4359424C 		.ascii	"CYBLE_GATT_ERR_UNLIKELY_ERROR\000"
 3868      455F4741 
 3868      54545F45 
 3868      52525F55 
 3868      4E4C494B 
 3869              	.LASF42:
 3870 0bf9 4359424C 		.ascii	"CYBLE_EVT_GAPC_DIRECT_ADV_REPORT\000"
 3870      455F4556 
ARM GAS  C:\Users\ADMINI~1\AppData\Local\Temp\ccMaTind.s 			page 115


 3870      545F4741 
 3870      50435F44 
 3870      49524543 
 3871              	.LASF197:
 3872 0c1a 4359424C 		.ascii	"CYBLE_GATT_XCNHG_MTU_REQ\000"
 3872      455F4741 
 3872      54545F58 
 3872      434E4847 
 3872      5F4D5455 
 3873              	.LASF96:
 3874 0c33 4359424C 		.ascii	"CYBLE_ERROR_NO_DEVICE_ENTITY\000"
 3874      455F4552 
 3874      524F525F 
 3874      4E4F5F44 
 3874      45564943 
 3875              	.LASF58:
 3876 0c50 4359424C 		.ascii	"CYBLE_EVT_GATTC_READ_BLOB_RSP\000"
 3876      455F4556 
 3876      545F4741 
 3876      5454435F 
 3876      52454144 
 3877              	.LASF309:
 3878 0c6e 64657669 		.ascii	"deviceAddress\000"
 3878      63654164 
 3878      64726573 
 3878      7300
 3879              	.LASF321:
 3880 0c7c 6379426C 		.ascii	"cyBle_eventHandlerFlag\000"
 3880      655F6576 
 3880      656E7448 
 3880      616E646C 
 3880      6572466C 
 3881              	.LASF65:
 3882 0c93 4359424C 		.ascii	"CYBLE_EVT_GATTC_EXEC_WRITE_RSP\000"
 3882      455F4556 
 3882      545F4741 
 3882      5454435F 
 3882      45584543 
 3883              	.LASF244:
 3884 0cb2 4359424C 		.ascii	"CYBLE_GATT_ERR_HEART_RATE_CONTROL_POINT_NOT_SUPPORT"
 3884      455F4741 
 3884      54545F45 
 3884      52525F48 
 3884      45415254 
 3885 0ce5 454400   		.ascii	"ED\000"
 3886              	.LASF236:
 3887 0ce8 4359424C 		.ascii	"CYBLE_GATT_ERR_ATTRIBUTE_NOT_LONG\000"
 3887      455F4741 
 3887      54545F45 
 3887      52525F41 
 3887      54545249 
 3888              	.LASF160:
 3889 0d0a 4359424C 		.ascii	"CYBLE_GAP_SEC_LEVEL_MASK\000"
 3889      455F4741 
 3889      505F5345 
 3889      435F4C45 
 3889      56454C5F 
ARM GAS  C:\Users\ADMINI~1\AppData\Local\Temp\ccMaTind.s 			page 116


 3890              	.LASF346:
 3891 0d23 4379426C 		.ascii	"CyBle_IassWriteCmdEventHandler\000"
 3891      655F4961 
 3891      73735772 
 3891      69746543 
 3891      6D644576 
 3892              	.LASF70:
 3893 0d42 4359424C 		.ascii	"CYBLE_EVT_GATTC_STOP_CMD_COMPLETE\000"
 3893      455F4556 
 3893      545F4741 
 3893      5454435F 
 3893      53544F50 
 3894              	.LASF260:
 3895 0d64 4359424C 		.ascii	"CYBLE_GATT_ERR_ANCS_ACTION_FAILED\000"
 3895      455F4741 
 3895      54545F45 
 3895      52525F41 
 3895      4E43535F 
 3896              	.LASF332:
 3897 0d86 6379426C 		.ascii	"cyBle_gaps\000"
 3897      655F6761 
 3897      707300
 3898              	.LASF330:
 3899 0d91 6379426C 		.ascii	"cyBle_connHandle\000"
 3899      655F636F 
 3899      6E6E4861 
 3899      6E646C65 
 3899      00
 3900              	.LASF196:
 3901 0da2 4359424C 		.ascii	"CYBLE_GATT_ERROR_RSP\000"
 3901      455F4741 
 3901      54545F45 
 3901      52524F52 
 3901      5F525350 
 3902              	.LASF116:
 3903 0db7 4359424C 		.ascii	"CYBLE_ERROR_CONTROLLER_BUSY\000"
 3903      455F4552 
 3903      524F525F 
 3903      434F4E54 
 3903      524F4C4C 
 3904              	.LASF90:
 3905 0dd3 4359424C 		.ascii	"CYBLE_ERROR_INVALID_PARAMETER\000"
 3905      455F4552 
 3905      524F525F 
 3905      494E5641 
 3905      4C49445F 
 3906              	.LASF289:
 3907 0df1 626F756E 		.ascii	"boundedDevCount\000"
 3907      64656444 
 3907      6576436F 
 3907      756E7400 
 3908              	.LASF179:
 3909 0e01 4359424C 		.ascii	"CYBLE_GAP_AUTH_ERROR_BR_EDR_PAIRING_IN_PROGRESS\000"
 3909      455F4741 
 3909      505F4155 
 3909      54485F45 
 3909      52524F52 
ARM GAS  C:\Users\ADMINI~1\AppData\Local\Temp\ccMaTind.s 			page 117


 3910              	.LASF92:
 3911 0e31 4359424C 		.ascii	"CYBLE_ERROR_MEMORY_ALLOCATION_FAILED\000"
 3911      455F4552 
 3911      524F525F 
 3911      4D454D4F 
 3911      52595F41 
 3912              	.LASF278:
 3913 0e56 70726570 		.ascii	"prepareWriteQueueSize\000"
 3913      61726557 
 3913      72697465 
 3913      51756575 
 3913      6553697A 
 3914              	.LASF323:
 3915 0e6c 6379426C 		.ascii	"cyBle_sflashDeviceAddress\000"
 3915      655F7366 
 3915      6C617368 
 3915      44657669 
 3915      63654164 
 3916              	.LASF287:
 3917 0e86 61747456 		.ascii	"attValuesCCCDFlashMemory\000"
 3917      616C7565 
 3917      73434343 
 3917      44466C61 
 3917      73684D65 
 3918              	.LASF223:
 3919 0e9f 4359424C 		.ascii	"CYBLE_GATT_SIGNED_WRITE_CMD\000"
 3919      455F4741 
 3919      54545F53 
 3919      49474E45 
 3919      445F5752 
 3920              	.LASF251:
 3921 0ebb 4359424C 		.ascii	"CYBLE_GATTS_ERR_CCCD_IMPROPERLY_CONFIGURED\000"
 3921      455F4741 
 3921      5454535F 
 3921      4552525F 
 3921      43434344 
 3922              	.LASF342:
 3923 0ee6 4379426C 		.ascii	"CyBle_GattsExchangeMtuRsp\000"
 3923      655F4761 
 3923      74747345 
 3923      78636861 
 3923      6E67654D 
 3924              	.LASF219:
 3925 0f00 4359424C 		.ascii	"CYBLE_GATT_EXECUTE_WRITE_RSP\000"
 3925      455F4741 
 3925      54545F45 
 3925      58454355 
 3925      54455F57 
 3926              	.LASF117:
 3927 0f1d 4359424C 		.ascii	"CYBLE_ERROR_MAX\000"
 3927      455F4552 
 3927      524F525F 
 3927      4D415800 
 3928              	.LASF74:
 3929 0f2d 4359424C 		.ascii	"CYBLE_EVT_L2CAP_CONN_PARAM_UPDATE_RSP\000"
 3929      455F4556 
 3929      545F4C32 
ARM GAS  C:\Users\ADMINI~1\AppData\Local\Temp\ccMaTind.s 			page 118


 3929      4341505F 
 3929      434F4E4E 
 3930              	.LASF183:
 3931 0f53 4359424C 		.ascii	"CYBLE_GAP_AUTH_ERROR_LINK_DISCONNECTED\000"
 3931      455F4741 
 3931      505F4155 
 3931      54485F45 
 3931      52524F52 
 3932              	.LASF86:
 3933 0f7a 4359424C 		.ascii	"CYBLE_EVT_HCI_PKT\000"
 3933      455F4556 
 3933      545F4843 
 3933      495F504B 
 3933      5400
 3934              	.LASF286:
 3935 0f8c 73746163 		.ascii	"stackFlashptr\000"
 3935      6B466C61 
 3935      73687074 
 3935      7200
 3936              	.LASF245:
 3937 0f9a 4359424C 		.ascii	"CYBLE_GATT_ERR_USER_DATA_ACCESS_NOT_PERMITTED\000"
 3937      455F4741 
 3937      54545F45 
 3937      52525F55 
 3937      5345525F 
 3938              	.LASF28:
 3939 0fc8 4359424C 		.ascii	"CYBLE_EVT_GAP_AUTH_COMPLETE\000"
 3939      455F4556 
 3939      545F4741 
 3939      505F4155 
 3939      54485F43 
 3940              	.LASF29:
 3941 0fe4 4359424C 		.ascii	"CYBLE_EVT_GAP_AUTH_FAILED\000"
 3941      455F4556 
 3941      545F4741 
 3941      505F4155 
 3941      54485F46 
 3942              	.LASF145:
 3943 0ffe 616C6C6F 		.ascii	"allocFree\000"
 3943      63467265 
 3943      6500
 3944              	.LASF122:
 3945 1008 4359424C 		.ascii	"CYBLE_ERROR_STACK_BUSY\000"
 3945      455F4552 
 3945      524F525F 
 3945      53544143 
 3945      4B5F4255 
 3946              	.LASF212:
 3947 101f 4359424C 		.ascii	"CYBLE_GATT_READ_BY_GROUP_RSP\000"
 3947      455F4741 
 3947      54545F52 
 3947      4541445F 
 3947      42595F47 
 3948              	.LASF93:
 3949 103c 4359424C 		.ascii	"CYBLE_ERROR_INSUFFICIENT_RESOURCES\000"
 3949      455F4552 
 3949      524F525F 
ARM GAS  C:\Users\ADMINI~1\AppData\Local\Temp\ccMaTind.s 			page 119


 3949      494E5355 
 3949      46464943 
 3950              	.LASF249:
 3951 105f 4359424C 		.ascii	"CYBLE_GATT_ERR_OP_CODE_NOT_SUPPORTED\000"
 3951      455F4741 
 3951      54545F45 
 3951      52525F4F 
 3951      505F434F 
 3952              	.LASF334:
 3953 1084 4379426C 		.ascii	"CyBle_IassDisconnectEventHandler\000"
 3953      655F4961 
 3953      73734469 
 3953      73636F6E 
 3953      6E656374 
 3954              	.LASF131:
 3955 10a5 4359424C 		.ascii	"CYBLE_LL_PWR_LVL_3_DBM\000"
 3955      455F4C4C 
 3955      5F505752 
 3955      5F4C564C 
 3955      5F335F44 
 3956              	.LASF5:
 3957 10bc 6C6F6E67 		.ascii	"long unsigned int\000"
 3957      20756E73 
 3957      69676E65 
 3957      6420696E 
 3957      7400
 3958              	.LASF205:
 3959 10ce 4359424C 		.ascii	"CYBLE_GATT_READ_REQ\000"
 3959      455F4741 
 3959      54545F52 
 3959      4541445F 
 3959      52455100 
 3960              	.LASF191:
 3961 10e2 73746174 		.ascii	"status\000"
 3961      757300
 3962              	.LASF129:
 3963 10e9 4359424C 		.ascii	"CYBLE_LL_PWR_LVL_NEG_1_DBM\000"
 3963      455F4C4C 
 3963      5F505752 
 3963      5F4C564C 
 3963      5F4E4547 
 3964              	.LASF113:
 3965 1104 4359424C 		.ascii	"CYBLE_ERROR_UNSUPPORTED_FEATURE_OR_PARAMETER_VALUE\000"
 3965      455F4552 
 3965      524F525F 
 3965      554E5355 
 3965      50504F52 
 3966              	.LASF142:
 3967 1137 4359424C 		.ascii	"CYBLE_INVALID_REQUEST\000"
 3967      455F494E 
 3967      56414C49 
 3967      445F5245 
 3967      51554553 
 3968              	.LASF173:
 3969 114d 4359424C 		.ascii	"CYBLE_GAP_AUTH_ERROR_COMMAND_NOT_SUPPORTED\000"
 3969      455F4741 
 3969      505F4155 
ARM GAS  C:\Users\ADMINI~1\AppData\Local\Temp\ccMaTind.s 			page 120


 3969      54485F45 
 3969      52524F52 
 3970              	.LASF169:
 3971 1178 4359424C 		.ascii	"CYBLE_GAP_AUTH_ERROR_AUTHENTICATION_REQ_NOT_MET\000"
 3971      455F4741 
 3971      505F4155 
 3971      54485F45 
 3971      52524F52 
 3972              	.LASF220:
 3973 11a8 4359424C 		.ascii	"CYBLE_GATT_HANDLE_VALUE_NTF\000"
 3973      455F4741 
 3973      54545F48 
 3973      414E444C 
 3973      455F5641 
 3974              	.LASF103:
 3975 11c4 4359424C 		.ascii	"CYBLE_ERROR_L2CAP_PSM_ALREADY_REGISTERED\000"
 3975      455F4552 
 3975      524F525F 
 3975      4C324341 
 3975      505F5053 
 3976              	.LASF257:
 3977 11ed 4359424C 		.ascii	"CYBLE_GATT_ERR_ANCS_UNKNOWN_COMMAND\000"
 3977      455F4741 
 3977      54545F45 
 3977      52525F41 
 3977      4E43535F 
 3978              	.LASF279:
 3979 1211 4359424C 		.ascii	"CYBLE_PREPARE_WRITE_REQUEST_MEMORY_T\000"
 3979      455F5052 
 3979      45504152 
 3979      455F5752 
 3979      4954455F 
 3980              	.LASF34:
 3981 1236 4359424C 		.ascii	"CYBLE_EVT_GAP_CONNECTION_UPDATE_COMPLETE\000"
 3981      455F4556 
 3981      545F4741 
 3981      505F434F 
 3981      4E4E4543 
 3982              	.LASF331:
 3983 125f 6379426C 		.ascii	"cyBle_busyStatus\000"
 3983      655F6275 
 3983      73795374 
 3983      61747573 
 3983      00
 3984              	.LASF344:
 3985 1270 4379426C 		.ascii	"CyBle_ChangeAdDeviceAddress\000"
 3985      655F4368 
 3985      616E6765 
 3985      41644465 
 3985      76696365 
 3986              	.LASF292:
 3987 128c 4359424C 		.ascii	"CYBLE_STATE_INITIALIZING\000"
 3987      455F5354 
 3987      4154455F 
 3987      494E4954 
 3987      49414C49 
 3988              	.LASF318:
ARM GAS  C:\Users\ADMINI~1\AppData\Local\Temp\ccMaTind.s 			page 121


 3989 12a5 6379426C 		.ascii	"cyBle_mtuSize\000"
 3989      655F6D74 
 3989      7553697A 
 3989      6500
 3990              	.LASF175:
 3991 12b3 4359424C 		.ascii	"CYBLE_GAP_AUTH_ERROR_REPEATED_ATTEMPTS\000"
 3991      455F4741 
 3991      505F4155 
 3991      54485F45 
 3991      52524F52 
 3992              	.LASF78:
 3993 12da 4359424C 		.ascii	"CYBLE_EVT_L2CAP_CBFC_DISCONN_IND\000"
 3993      455F4556 
 3993      545F4C32 
 3993      4341505F 
 3993      43424643 
 3994              	.LASF26:
 3995 12fb 4359424C 		.ascii	"CYBLE_EVT_GAP_PASSKEY_ENTRY_REQUEST\000"
 3995      455F4556 
 3995      545F4741 
 3995      505F5041 
 3995      53534B45 
 3996              	.LASF177:
 3997 131f 4359424C 		.ascii	"CYBLE_GAP_AUTH_ERROR_DHKEY_CHECK_FAILED\000"
 3997      455F4741 
 3997      505F4155 
 3997      54485F45 
 3997      52524F52 
 3998              	.LASF133:
 3999 1347 4359424C 		.ascii	"CYBLE_BLESS_PWR_LVL_T\000"
 3999      455F424C 
 3999      4553535F 
 3999      5057525F 
 3999      4C564C5F 
 4000              	.LASF290:
 4001 135d 43595F42 		.ascii	"CY_BLE_FLASH_STORAGE\000"
 4001      4C455F46 
 4001      4C415348 
 4001      5F53544F 
 4001      52414745 
 4002              	.LASF328:
 4003 1372 6379426C 		.ascii	"cyBle_flashStorage\000"
 4003      655F666C 
 4003      61736853 
 4003      746F7261 
 4003      676500
 4004              	.LASF341:
 4005 1385 4379426C 		.ascii	"CyBle_GappAuthReqReply\000"
 4005      655F4761 
 4005      70704175 
 4005      74685265 
 4005      71526570 
 4006              	.LASF172:
 4007 139c 4359424C 		.ascii	"CYBLE_GAP_AUTH_ERROR_INSUFFICIENT_ENCRYPTION_KEY_SI"
 4007      455F4741 
 4007      505F4155 
 4007      54485F45 
ARM GAS  C:\Users\ADMINI~1\AppData\Local\Temp\ccMaTind.s 			page 122


 4007      52524F52 
 4008 13cf 5A4500   		.ascii	"ZE\000"
 4009              	.LASF340:
 4010 13d2 4379426C 		.ascii	"CyBle_GapSetLeEventMask\000"
 4010      655F4761 
 4010      70536574 
 4010      4C654576 
 4010      656E744D 
 4011              	.LASF6:
 4012 13ea 6C6F6E67 		.ascii	"long long int\000"
 4012      206C6F6E 
 4012      6720696E 
 4012      7400
 4013              	.LASF304:
 4014 13f8 4379426C 		.ascii	"CyBle_GattDisconnectEventHandler\000"
 4014      655F4761 
 4014      74744469 
 4014      73636F6E 
 4014      6E656374 
 4015              	.LASF147:
 4016 1419 4359424C 		.ascii	"CYBLE_MEMORY_REQUEST_T\000"
 4016      455F4D45 
 4016      4D4F5259 
 4016      5F524551 
 4016      55455354 
 4017              	.LASF185:
 4018 1430 73656375 		.ascii	"security\000"
 4018      72697479 
 4018      00
 4019              	.LASF234:
 4020 1439 4359424C 		.ascii	"CYBLE_GATT_ERR_PREPARE_WRITE_QUEUE_FULL\000"
 4020      455F4741 
 4020      54545F45 
 4020      52525F50 
 4020      52455041 
 4021              	.LASF104:
 4022 1461 4359424C 		.ascii	"CYBLE_ERROR_L2CAP_PSM_NOT_REGISTERED\000"
 4022      455F4552 
 4022      524F525F 
 4022      4C324341 
 4022      505F5053 
 4023              	.LASF94:
 4024 1486 4359424C 		.ascii	"CYBLE_ERROR_OOB_NOT_AVAILABLE\000"
 4024      455F4552 
 4024      524F525F 
 4024      4F4F425F 
 4024      4E4F545F 
 4025              	.LASF13:
 4026 14a4 646F7562 		.ascii	"double\000"
 4026      6C6500
 4027              	.LASF109:
 4028 14ab 4359424C 		.ascii	"CYBLE_ERROR_DEVICE_ALREADY_EXISTS\000"
 4028      455F4552 
 4028      524F525F 
 4028      44455649 
 4028      43455F41 
 4029              	.LASF84:
ARM GAS  C:\Users\ADMINI~1\AppData\Local\Temp\ccMaTind.s 			page 123


 4030 14cd 4359424C 		.ascii	"CYBLE_EVT_PENDING_FLASH_WRITE\000"
 4030      455F4556 
 4030      545F5045 
 4030      4E44494E 
 4030      475F464C 
 4031              	.LASF237:
 4032 14eb 4359424C 		.ascii	"CYBLE_GATT_ERR_INSUFFICIENT_ENC_KEY_SIZE\000"
 4032      455F4741 
 4032      54545F45 
 4032      52525F49 
 4032      4E535546 
 4033              	.LASF132:
 4034 1514 4359424C 		.ascii	"CYBLE_LL_PWR_LVL_MAX\000"
 4034      455F4C4C 
 4034      5F505752 
 4034      5F4C564C 
 4034      5F4D4158 
 4035              	.LASF298:
 4036 1529 64657669 		.ascii	"deviceNameCharHandle\000"
 4036      63654E61 
 4036      6D654368 
 4036      61724861 
 4036      6E646C65 
 4037              	.LASF262:
 4038 153e 4359424C 		.ascii	"CYBLE_GATT_ERR_PROCEDURE_ALREADY_IN_PROGRESS\000"
 4038      455F4741 
 4038      54545F45 
 4038      52525F50 
 4038      524F4345 
 4039              	.LASF41:
 4040 156b 4359424C 		.ascii	"CYBLE_EVT_GAP_ENHANCE_CONN_COMPLETE\000"
 4040      455F4556 
 4040      545F4741 
 4040      505F454E 
 4040      48414E43 
 4041              	.LASF106:
 4042 158f 4359424C 		.ascii	"CYBLE_ERROR_L2CAP_CHANNEL_NOT_FOUND\000"
 4042      455F4552 
 4042      524F525F 
 4042      4C324341 
 4042      505F4348 
 4043              	.LASF97:
 4044 15b3 4359424C 		.ascii	"CYBLE_ERROR_REPEATED_ATTEMPTS\000"
 4044      455F4552 
 4044      524F525F 
 4044      52455045 
 4044      41544544 
 4045              	.LASF12:
 4046 15d1 666C6F61 		.ascii	"float\000"
 4046      7400
 4047              	.LASF110:
 4048 15d7 4359424C 		.ascii	"CYBLE_ERROR_FLASH_WRITE_NOT_PERMITED\000"
 4048      455F4552 
 4048      524F525F 
 4048      464C4153 
 4048      485F5752 
 4049              	.LASF71:
ARM GAS  C:\Users\ADMINI~1\AppData\Local\Temp\ccMaTind.s 			page 124


 4050 15fc 4359424C 		.ascii	"CYBLE_EVT_GATTS_READ_CHAR_VAL_ACCESS_REQ\000"
 4050      455F4556 
 4050      545F4741 
 4050      5454535F 
 4050      52454144 
 4051              	.LASF280:
 4052 1625 6F70636F 		.ascii	"opcode\000"
 4052      646500
 4053              	.LASF233:
 4054 162c 4359424C 		.ascii	"CYBLE_GATT_ERR_INSUFFICIENT_AUTHORIZATION\000"
 4054      455F4741 
 4054      54545F45 
 4054      52525F49 
 4054      4E535546 
 4055              	.LASF272:
 4056 1656 61747472 		.ascii	"attrHandle\000"
 4056      48616E64 
 4056      6C6500
 4057              	.LASF186:
 4058 1661 626F6E64 		.ascii	"bonding\000"
 4058      696E6700 
 4059              	.LASF284:
 4060 1669 4359424C 		.ascii	"CYBLE_GATTS_WRITE_REQ_PARAM_T\000"
 4060      455F4741 
 4060      5454535F 
 4060      57524954 
 4060      455F5245 
 4061              	.LASF8:
 4062 1687 756E7369 		.ascii	"unsigned int\000"
 4062      676E6564 
 4062      20696E74 
 4062      00
 4063              	.LASF63:
 4064 1694 4359424C 		.ascii	"CYBLE_EVT_GATTS_PREP_WRITE_REQ\000"
 4064      455F4556 
 4064      545F4741 
 4064      5454535F 
 4064      50524550 
 4065              	.LASF230:
 4066 16b3 4359424C 		.ascii	"CYBLE_GATT_ERR_INSUFFICIENT_AUTHENTICATION\000"
 4066      455F4741 
 4066      54545F45 
 4066      52525F49 
 4066      4E535546 
 4067              	.LASF275:
 4068 16de 4359424C 		.ascii	"CYBLE_GATT_XCHG_MTU_PARAM_T\000"
 4068      455F4741 
 4068      54545F58 
 4068      4348475F 
 4068      4D54555F 
 4069              	.LASF135:
 4070 16fa 4359424C 		.ascii	"CYBLE_LL_CONN_CH_TYPE\000"
 4070      455F4C4C 
 4070      5F434F4E 
 4070      4E5F4348 
 4070      5F545950 
 4071              	.LASF336:
ARM GAS  C:\Users\ADMINI~1\AppData\Local\Temp\ccMaTind.s 			page 125


 4072 1710 4379426C 		.ascii	"CyBle_GattsWriteEventHandler\000"
 4072      655F4761 
 4072      74747357 
 4072      72697465 
 4072      4576656E 
 4073              	.LASF248:
 4074 172d 4359424C 		.ascii	"CYBLE_GATTS_ERR_PROCEDURE_ALREADY_IN_PROGRESS\000"
 4074      455F4741 
 4074      5454535F 
 4074      4552525F 
 4074      50524F43 
 4075              	.LASF307:
 4076 175b 6572725F 		.ascii	"err_param\000"
 4076      70617261 
 4076      6D00
 4077              	.LASF102:
 4078 1765 4359424C 		.ascii	"CYBLE_ERROR_L2CAP_PSM_WRONG_ENCODING\000"
 4078      455F4552 
 4078      524F525F 
 4078      4C324341 
 4078      505F5053 
 4079              	.LASF217:
 4080 178a 4359424C 		.ascii	"CYBLE_GATT_PREPARE_WRITE_RSP\000"
 4080      455F4741 
 4080      54545F50 
 4080      52455041 
 4080      52455F57 
 4081              	.LASF316:
 4082 17a7 67507265 		.ascii	"gPrepWriteReqMem\000"
 4082      70577269 
 4082      74655265 
 4082      714D656D 
 4082      00
 4083              	.LASF235:
 4084 17b8 4359424C 		.ascii	"CYBLE_GATT_ERR_ATTRIBUTE_NOT_FOUND\000"
 4084      455F4741 
 4084      54545F45 
 4084      52525F41 
 4084      54545249 
 4085              	.LASF88:
 4086 17db 4359424C 		.ascii	"CYBLE_EVT_MAX\000"
 4086      455F4556 
 4086      545F4D41 
 4086      5800
 4087              	.LASF35:
 4088 17e9 4359424C 		.ascii	"CYBLE_EVT_GAPC_SCAN_START_STOP\000"
 4088      455F4556 
 4088      545F4741 
 4088      50435F53 
 4088      43414E5F 
 4089              	.LASF350:
 4090 1808 4379426C 		.ascii	"CyBle_IsDeviceAddressValid\000"
 4090      655F4973 
 4090      44657669 
 4090      63654164 
 4090      64726573 
 4091              	.LASF184:
ARM GAS  C:\Users\ADMINI~1\AppData\Local\Temp\ccMaTind.s 			page 126


 4092 1823 4359424C 		.ascii	"CYBLE_GAP_AUTH_FAILED_REASON_T\000"
 4092      455F4741 
 4092      505F4155 
 4092      54485F46 
 4092      41494C45 
 4093              	.LASF60:
 4094 1842 4359424C 		.ascii	"CYBLE_EVT_GATTS_WRITE_REQ\000"
 4094      455F4556 
 4094      545F4741 
 4094      5454535F 
 4094      57524954 
 4095              	.LASF300:
 4096 185c 70726566 		.ascii	"prefConnParamCharHandle\000"
 4096      436F6E6E 
 4096      50617261 
 4096      6D436861 
 4096      7248616E 
 4097              	.LASF27:
 4098 1874 4359424C 		.ascii	"CYBLE_EVT_GAP_PASSKEY_DISPLAY_REQUEST\000"
 4098      455F4556 
 4098      545F4741 
 4098      505F5041 
 4098      53534B45 
 4099              	.LASF119:
 4100 189a 4359424C 		.ascii	"CYBLE_ERROR_IND_DISABLED\000"
 4100      455F4552 
 4100      524F525F 
 4100      494E445F 
 4100      44495341 
 4101              	.LASF118:
 4102 18b3 4359424C 		.ascii	"CYBLE_ERROR_NTF_DISABLED\000"
 4102      455F4552 
 4102      524F525F 
 4102      4E54465F 
 4102      44495341 
 4103              	.LASF209:
 4104 18cc 4359424C 		.ascii	"CYBLE_GATT_READ_MULTIPLE_REQ\000"
 4104      455F4741 
 4104      54545F52 
 4104      4541445F 
 4104      4D554C54 
 4105              	.LASF57:
 4106 18e9 4359424C 		.ascii	"CYBLE_EVT_GATTC_READ_RSP\000"
 4106      455F4556 
 4106      545F4741 
 4106      5454435F 
 4106      52454144 
 4107              	.LASF232:
 4108 1902 4359424C 		.ascii	"CYBLE_GATT_ERR_INVALID_OFFSET\000"
 4108      455F4741 
 4108      54545F45 
 4108      52525F49 
 4108      4E56414C 
 4109              	.LASF203:
 4110 1920 4359424C 		.ascii	"CYBLE_GATT_READ_BY_TYPE_REQ\000"
 4110      455F4741 
 4110      54545F52 
ARM GAS  C:\Users\ADMINI~1\AppData\Local\Temp\ccMaTind.s 			page 127


 4110      4541445F 
 4110      42595F54 
 4111              	.LASF77:
 4112 193c 4359424C 		.ascii	"CYBLE_EVT_L2CAP_CBFC_CONN_CNF\000"
 4112      455F4556 
 4112      545F4C32 
 4112      4341505F 
 4112      43424643 
 4113              	.LASF263:
 4114 195a 4359424C 		.ascii	"CYBLE_GATT_ERR_OUT_OF_RANGE\000"
 4114      455F4741 
 4114      54545F45 
 4114      52525F4F 
 4114      55545F4F 
 4115              	.LASF87:
 4116 1976 4359424C 		.ascii	"CYBLE_EVT_FLASH_CORRUPT\000"
 4116      455F4556 
 4116      545F464C 
 4116      4153485F 
 4116      434F5252 
 4117              	.LASF15:
 4118 198e 6C6F6E67 		.ascii	"long double\000"
 4118      20646F75 
 4118      626C6500 
 4119              	.LASF201:
 4120 199a 4359424C 		.ascii	"CYBLE_GATT_FIND_BY_TYPE_VALUE_REQ\000"
 4120      455F4741 
 4120      54545F46 
 4120      494E445F 
 4120      42595F54 
 4121              	.LASF126:
 4122 19bc 4359424C 		.ascii	"CYBLE_LL_PWR_LVL_NEG_6_DBM\000"
 4122      455F4C4C 
 4122      5F505752 
 4122      5F4C564C 
 4122      5F4E4547 
 4123              	.LASF23:
 4124 19d7 4359424C 		.ascii	"CYBLE_EVT_MEMORY_REQUEST\000"
 4124      455F4556 
 4124      545F4D45 
 4124      4D4F5259 
 4124      5F524551 
 4125              	.LASF299:
 4126 19f0 61707065 		.ascii	"appearanceCharHandle\000"
 4126      6172616E 
 4126      63654368 
 4126      61724861 
 4126      6E646C65 
 4127              	.LASF166:
 4128 1a05 4359424C 		.ascii	"CYBLE_GAP_AUTH_ERROR_NONE\000"
 4128      455F4741 
 4128      505F4155 
 4128      54485F45 
 4128      52524F52 
 4129              	.LASF33:
 4130 1a1f 4359424C 		.ascii	"CYBLE_EVT_GAP_ENCRYPT_CHANGE\000"
 4130      455F4556 
ARM GAS  C:\Users\ADMINI~1\AppData\Local\Temp\ccMaTind.s 			page 128


 4130      545F4741 
 4130      505F454E 
 4130      43525950 
 4131              	.LASF276:
 4132 1a3c 71756575 		.ascii	"queueBuffer\000"
 4132      65427566 
 4132      66657200 
 4133              	.LASF51:
 4134 1a48 4359424C 		.ascii	"CYBLE_EVT_GATTS_XCNHG_MTU_REQ\000"
 4134      455F4556 
 4134      545F4741 
 4134      5454535F 
 4134      58434E48 
 4135              	.LASF200:
 4136 1a66 4359424C 		.ascii	"CYBLE_GATT_FIND_INFO_RSP\000"
 4136      455F4741 
 4136      54545F46 
 4136      494E445F 
 4136      494E464F 
 4137              	.LASF168:
 4138 1a7f 4359424C 		.ascii	"CYBLE_GAP_AUTH_ERROR_OOB_DATA_NOT_AVAILABLE\000"
 4138      455F4741 
 4138      505F4155 
 4138      54485F45 
 4138      52524F52 
 4139              	.LASF47:
 4140 1aab 4359424C 		.ascii	"CYBLE_EVT_GAP_SMP_LOC_P256_KEYS_GEN_AND_SET_COMPLET"
 4140      455F4556 
 4140      545F4741 
 4140      505F534D 
 4140      505F4C4F 
 4141 1ade 4500     		.ascii	"E\000"
 4142              	.LASF141:
 4143 1ae0 4359424C 		.ascii	"CYBLE_PREPARED_WRITE_REQUEST\000"
 4143      455F5052 
 4143      45504152 
 4143      45445F57 
 4143      52495445 
 4144              	.LASF195:
 4145 1afd 4359424C 		.ascii	"CYBLE_GAP_CONN_PARAM_UPDATED_IN_CONTROLLER_T\000"
 4145      455F4741 
 4145      505F434F 
 4145      4E4E5F50 
 4145      4152414D 
 4146              	.LASF7:
 4147 1b2a 6C6F6E67 		.ascii	"long long unsigned int\000"
 4147      206C6F6E 
 4147      6720756E 
 4147      7369676E 
 4147      65642069 
 4148              	.LASF226:
 4149 1b41 4359424C 		.ascii	"CYBLE_GATT_ERR_INVALID_HANDLE\000"
 4149      455F4741 
 4149      54545F45 
 4149      52525F49 
 4149      4E56414C 
 4150              	.LASF348:
ARM GAS  C:\Users\ADMINI~1\AppData\Local\Temp\ccMaTind.s 			page 129


 4151 1b5f 47656E65 		.ascii	"Generated_Source\\PSoC4\\BLE_1_eventHandler.c\000"
 4151      72617465 
 4151      645F536F 
 4151      75726365 
 4151      5C50536F 
 4152              	.LASF19:
 4153 1b8b 4359424C 		.ascii	"CYBLE_EVT_TIMEOUT\000"
 4153      455F4556 
 4153      545F5449 
 4153      4D454F55 
 4153      5400
 4154              	.LASF224:
 4155 1b9d 4359424C 		.ascii	"CYBLE_GATT_UNKNOWN_PDU_IND\000"
 4155      455F4741 
 4155      54545F55 
 4155      4E4B4E4F 
 4155      574E5F50 
 4156              	.LASF121:
 4157 1bb8 4359424C 		.ascii	"CYBLE_ERROR_INVALID_STATE\000"
 4157      455F4552 
 4157      524F525F 
 4157      494E5641 
 4157      4C49445F 
 4158              	.LASF265:
 4159 1bd2 4359424C 		.ascii	"CYBLE_GATT_DB_ATTR_HANDLE_T\000"
 4159      455F4741 
 4159      54545F44 
 4159      425F4154 
 4159      54525F48 
 4160              	.LASF312:
 4161 1bee 626C6553 		.ascii	"bleSsPowerLevel\000"
 4161      73506F77 
 4161      65724C65 
 4161      76656C00 
 4162              	.LASF80:
 4163 1bfe 4359424C 		.ascii	"CYBLE_EVT_L2CAP_CBFC_DATA_READ\000"
 4163      455F4556 
 4163      545F4C32 
 4163      4341505F 
 4163      43424643 
 4164              	.LASF225:
 4165 1c1d 4359424C 		.ascii	"CYBLE_GATT_ERR_NONE\000"
 4165      455F4741 
 4165      54545F45 
 4165      52525F4E 
 4165      4F4E4500 
 4166              	.LASF271:
 4167 1c31 76616C75 		.ascii	"value\000"
 4167      6500
 4168              	.LASF277:
 4169 1c37 746F7461 		.ascii	"totalAttrValueLength\000"
 4169      6C417474 
 4169      7256616C 
 4169      75654C65 
 4169      6E677468 
 4170              	.LASF319:
 4171 1c4c 4379426C 		.ascii	"CyBle_ApplCallback\000"
ARM GAS  C:\Users\ADMINI~1\AppData\Local\Temp\ccMaTind.s 			page 130


 4171      655F4170 
 4171      706C4361 
 4171      6C6C6261 
 4171      636B00
 4172              	.LASF114:
 4173 1c5f 4359424C 		.ascii	"CYBLE_ERROR_FLASH_WRITE\000"
 4173      455F4552 
 4173      524F525F 
 4173      464C4153 
 4173      485F5752 
 4174              	.LASF152:
 4175 1c77 4359424C 		.ascii	"CYBLE_GAP_SCAN_TO\000"
 4175      455F4741 
 4175      505F5343 
 4175      414E5F54 
 4175      4F00
 4176              	.LASF247:
 4177 1c89 4359424C 		.ascii	"CYBLE_GATT_ERR_HTS_OUT_OF_RANGE\000"
 4177      455F4741 
 4177      54545F45 
 4177      52525F48 
 4177      54535F4F 
 4178              	.LASF303:
 4179 1ca9 4359424C 		.ascii	"CYBLE_GAPS_T\000"
 4179      455F4741 
 4179      50535F54 
 4179      00
 4180              	.LASF150:
 4181 1cb6 4359424C 		.ascii	"CYBLE_GAP_BD_ADDR_T\000"
 4181      455F4741 
 4181      505F4244 
 4181      5F414444 
 4181      525F5400 
 4182              	.LASF207:
 4183 1cca 4359424C 		.ascii	"CYBLE_GATT_READ_BLOB_REQ\000"
 4183      455F4741 
 4183      54545F52 
 4183      4541445F 
 4183      424C4F42 
 4184              	.LASF151:
 4185 1ce3 4359424C 		.ascii	"CYBLE_GAP_ADV_MODE_TO\000"
 4185      455F4741 
 4185      505F4144 
 4185      565F4D4F 
 4185      44455F54 
 4186              	.LASF283:
 4187 1cf9 68616E64 		.ascii	"handleValPair\000"
 4187      6C655661 
 4187      6C506169 
 4187      7200
 4188              	.LASF274:
 4189 1d07 636F6E6E 		.ascii	"connHandle\000"
 4189      48616E64 
 4189      6C6500
 4190              	.LASF171:
 4191 1d12 4359424C 		.ascii	"CYBLE_GAP_AUTH_ERROR_PAIRING_NOT_SUPPORTED\000"
 4191      455F4741 
ARM GAS  C:\Users\ADMINI~1\AppData\Local\Temp\ccMaTind.s 			page 131


 4191      505F4155 
 4191      54485F45 
 4191      52524F52 
 4192              	.LASF154:
 4193 1d3d 4359424C 		.ascii	"CYBLE_GENERIC_TO\000"
 4193      455F4745 
 4193      4E455249 
 4193      435F544F 
 4193      00
 4194              	.LASF325:
 4195 1d4e 6379426C 		.ascii	"cyBle_pendingFlashWrite\000"
 4195      655F7065 
 4195      6E64696E 
 4195      67466C61 
 4195      73685772 
 4196              	.LASF55:
 4197 1d66 4359424C 		.ascii	"CYBLE_EVT_GATTC_FIND_INFO_RSP\000"
 4197      455F4556 
 4197      545F4741 
 4197      5454435F 
 4197      46494E44 
 4198              	.LASF54:
 4199 1d84 4359424C 		.ascii	"CYBLE_EVT_GATTC_READ_BY_TYPE_RSP\000"
 4199      455F4556 
 4199      545F4741 
 4199      5454435F 
 4199      52454144 
 4200              	.LASF252:
 4201 1da5 4359424C 		.ascii	"CYBLE_GATTS_ERR_OPERATION_FAILED\000"
 4201      455F4741 
 4201      5454535F 
 4201      4552525F 
 4201      4F504552 
 4202              	.LASF329:
 4203 1dc6 6379426C 		.ascii	"cyBle_state\000"
 4203      655F7374 
 4203      61746500 
 4204              	.LASF339:
 4205 1dd2 4379426C 		.ascii	"CyBle_EnableDefaultDevicePrivacy\000"
 4205      655F456E 
 4205      61626C65 
 4205      44656661 
 4205      756C7444 
 4206              	.LASF115:
 4207 1df3 4359424C 		.ascii	"CYBLE_ERROR_LL_SAME_TRANSACTION_COLLISION\000"
 4207      455F4552 
 4207      524F525F 
 4207      4C4C5F53 
 4207      414D455F 
 4208              	.LASF189:
 4209 1e1d 70616972 		.ascii	"pairingProperties\000"
 4209      696E6750 
 4209      726F7065 
 4209      72746965 
 4209      7300
 4210              	.LASF61:
 4211 1e2f 4359424C 		.ascii	"CYBLE_EVT_GATTC_WRITE_RSP\000"
ARM GAS  C:\Users\ADMINI~1\AppData\Local\Temp\ccMaTind.s 			page 132


 4211      455F4556 
 4211      545F4741 
 4211      5454435F 
 4211      57524954 
 4212              	.LASF295:
 4213 1e49 4359424C 		.ascii	"CYBLE_STATE_DISCONNECTED\000"
 4213      455F5354 
 4213      4154455F 
 4213      44495343 
 4213      4F4E4E45 
 4214              	.LASF314:
 4215 1e62 6C654D61 		.ascii	"leMask\000"
 4215      736B00
 4216              	.LASF30:
 4217 1e69 4359424C 		.ascii	"CYBLE_EVT_GAPP_ADVERTISEMENT_START_STOP\000"
 4217      455F4556 
 4217      545F4741 
 4217      50505F41 
 4217      44564552 
 4218              	.LASF9:
 4219 1e91 75696E74 		.ascii	"uint8\000"
 4219      3800
 4220              	.LASF324:
 4221 1e97 6379426C 		.ascii	"cyBle_authInfo\000"
 4221      655F6175 
 4221      7468496E 
 4221      666F00
 4222              	.LASF38:
 4223 1ea6 4359424C 		.ascii	"CYBLE_EVT_GAP_KEYPRESS_NOTIFICATION\000"
 4223      455F4556 
 4223      545F4741 
 4223      505F4B45 
 4223      59505245 
 4224              	.LASF213:
 4225 1eca 4359424C 		.ascii	"CYBLE_GATT_WRITE_REQ\000"
 4225      455F4741 
 4225      54545F57 
 4225      52495445 
 4225      5F524551 
 4226              	.LASF2:
 4227 1edf 73686F72 		.ascii	"short int\000"
 4227      7420696E 
 4227      7400
 4228              	.LASF188:
 4229 1ee9 61757468 		.ascii	"authErr\000"
 4229      45727200 
 4230              	.LASF112:
 4231 1ef1 4359424C 		.ascii	"CYBLE_ERROR_HARDWARE_FAILURE\000"
 4231      455F4552 
 4231      524F525F 
 4231      48415244 
 4231      57415245 
 4232              	.LASF246:
 4233 1f0e 4359424C 		.ascii	"CYBLE_GATT_ERR_CPS_INAPPROPRIATE_CONNECTION_PARAMET"
 4233      455F4741 
 4233      54545F45 
 4233      52525F43 
ARM GAS  C:\Users\ADMINI~1\AppData\Local\Temp\ccMaTind.s 			page 133


 4233      50535F49 
 4234 1f41 45525300 		.ascii	"ERS\000"
 4235              	.LASF231:
 4236 1f45 4359424C 		.ascii	"CYBLE_GATT_ERR_REQUEST_NOT_SUPPORTED\000"
 4236      455F4741 
 4236      54545F45 
 4236      52525F52 
 4236      45515545 
 4237              	.LASF48:
 4238 1f6a 4359424C 		.ascii	"CYBLE_EVT_GATTC_ERROR_RSP\000"
 4238      455F4556 
 4238      545F4741 
 4238      5454435F 
 4238      4552524F 
 4239              	.LASF165:
 4240 1f84 4359424C 		.ascii	"CYBLE_GAP_IOCAP_KEYBOARD_DISPLAY\000"
 4240      455F4741 
 4240      505F494F 
 4240      4341505F 
 4240      4B455942 
 4241              	.LASF296:
 4242 1fa5 4359424C 		.ascii	"CYBLE_STATE_T\000"
 4242      455F5354 
 4242      4154455F 
 4242      5400
 4243              	.LASF76:
 4244 1fb3 4359424C 		.ascii	"CYBLE_EVT_L2CAP_CBFC_CONN_IND\000"
 4244      455F4556 
 4244      545F4C32 
 4244      4341505F 
 4244      43424643 
 4245              	.LASF64:
 4246 1fd1 4359424C 		.ascii	"CYBLE_EVT_GATTS_EXEC_WRITE_REQ\000"
 4246      455F4556 
 4246      545F4741 
 4246      5454535F 
 4246      45584543 
 4247              	.LASF24:
 4248 1ff0 4359424C 		.ascii	"CYBLE_EVT_GAPC_SCAN_PROGRESS_RESULT\000"
 4248      455F4556 
 4248      545F4741 
 4248      50435F53 
 4248      43414E5F 
 4249              	.LASF349:
 4250 2014 453A5C4D 		.ascii	"E:\\MCU_learning\\cypress\\Cypress_Lowpower\\BLE_Lo"
 4250      43555F6C 
 4250      6561726E 
 4250      696E675C 
 4250      63797072 
 4251 2043 77706F77 		.ascii	"wpower\\BLE_Lowpower\\BLE_WDT_Lowpower.cydsn\000"
 4251      65725C42 
 4251      4C455F4C 
 4251      6F77706F 
 4251      7765725C 
 4252              	.LASF264:
 4253 206e 4359424C 		.ascii	"CYBLE_GATT_ERR_CODE_T\000"
 4253      455F4741 
ARM GAS  C:\Users\ADMINI~1\AppData\Local\Temp\ccMaTind.s 			page 134


 4253      54545F45 
 4253      52525F43 
 4253      4F44455F 
 4254              	.LASF288:
 4255 2084 63636364 		.ascii	"cccdCount\000"
 4255      436F756E 
 4255      7400
 4256              	.LASF259:
 4257 208e 4359424C 		.ascii	"CYBLE_GATT_ERR_ANCS_INVALID_PARAMETER\000"
 4257      455F4741 
 4257      54545F45 
 4257      52525F41 
 4257      4E43535F 
 4258              	.LASF98:
 4259 20b4 4359424C 		.ascii	"CYBLE_ERROR_GAP_ROLE\000"
 4259      455F4552 
 4259      524F525F 
 4259      4741505F 
 4259      524F4C45 
 4260              	.LASF320:
 4261 20c9 6379426C 		.ascii	"cyBle_stackMemoryRam\000"
 4261      655F7374 
 4261      61636B4D 
 4261      656D6F72 
 4261      7952616D 
 4262              	.LASF333:
 4263 20de 6379426C 		.ascii	"cyBle_advertisingIntervalType\000"
 4263      655F6164 
 4263      76657274 
 4263      6973696E 
 4263      67496E74 
 4264              	.LASF45:
 4265 20fc 4359424C 		.ascii	"CYBLE_EVT_GAP_SCAN_REQ_RECVD\000"
 4265      455F4556 
 4265      545F4741 
 4265      505F5343 
 4265      414E5F52 
 4266              	.LASF301:
 4267 2119 63656E74 		.ascii	"centralAddrResolutionCharHandle\000"
 4267      72616C41 
 4267      64647252 
 4267      65736F6C 
 4267      7574696F 
 4268              	.LASF148:
 4269 2139 62644164 		.ascii	"bdAddr\000"
 4269      647200
 4270              	.LASF256:
 4271 2140 4359424C 		.ascii	"CYBLE_GATT_ERR_ANS_COMMAND_NOT_SUPPORTED\000"
 4271      455F4741 
 4271      54545F45 
 4271      52525F41 
 4271      4E535F43 
 4272              	.LASF335:
 4273 2169 4379426C 		.ascii	"CyBle_GattsErrorRsp\000"
 4273      655F4761 
 4273      74747345 
 4273      72726F72 
ARM GAS  C:\Users\ADMINI~1\AppData\Local\Temp\ccMaTind.s 			page 135


 4273      52737000 
 4274              	.LASF206:
 4275 217d 4359424C 		.ascii	"CYBLE_GATT_READ_RSP\000"
 4275      455F4741 
 4275      54545F52 
 4275      4541445F 
 4275      52535000 
 4276              	.LASF313:
 4277 2191 62644164 		.ascii	"bdAddrLoc\000"
 4277      64724C6F 
 4277      6300
 4278              	.LASF95:
 4279 219b 4359424C 		.ascii	"CYBLE_ERROR_NO_CONNECTION\000"
 4279      455F4552 
 4279      524F525F 
 4279      4E4F5F43 
 4279      4F4E4E45 
 4280              	.LASF130:
 4281 21b5 4359424C 		.ascii	"CYBLE_LL_PWR_LVL_0_DBM\000"
 4281      455F4C4C 
 4281      5F505752 
 4281      5F4C564C 
 4281      5F305F44 
 4282              	.LASF352:
 4283 21cc 6D656D63 		.ascii	"memcpy\000"
 4283      707900
 4284              	.LASF134:
 4285 21d3 4359424C 		.ascii	"CYBLE_LL_ADV_CH_TYPE\000"
 4285      455F4C4C 
 4285      5F414456 
 4285      5F43485F 
 4285      54595045 
 4286              	.LASF85:
 4287 21e8 4359424C 		.ascii	"CYBLE_EVT_LE_PING_AUTH_TIMEOUT\000"
 4287      455F4556 
 4287      545F4C45 
 4287      5F50494E 
 4287      475F4155 
 4288              	.LASF123:
 4289 2207 4359424C 		.ascii	"CYBLE_API_RESULT_T\000"
 4289      455F4150 
 4289      495F5245 
 4289      53554C54 
 4289      5F5400
 4290              	.LASF327:
 4291 221a 6379426C 		.ascii	"cyBle_attValuesCCCD\000"
 4291      655F6174 
 4291      7456616C 
 4291      75657343 
 4291      43434400 
 4292              	.LASF67:
 4293 222e 4359424C 		.ascii	"CYBLE_EVT_GATTC_HANDLE_VALUE_IND\000"
 4293      455F4556 
 4293      545F4741 
 4293      5454435F 
 4293      48414E44 
 4294              	.LASF311:
ARM GAS  C:\Users\ADMINI~1\AppData\Local\Temp\ccMaTind.s 			page 136


 4295 224f 6576656E 		.ascii	"eventCode\000"
 4295      74436F64 
 4295      6500
 4296              	.LASF101:
 4297 2259 4359424C 		.ascii	"CYBLE_ERROR_SEC_FAILED\000"
 4297      455F4552 
 4297      524F525F 
 4297      5345435F 
 4297      4641494C 
 4298              	.LASF22:
 4299 2270 4359424C 		.ascii	"CYBLE_EVT_STACK_BUSY_STATUS\000"
 4299      455F4556 
 4299      545F5354 
 4299      41434B5F 
 4299      42555359 
 4300              	.LASF193:
 4301 228c 636F6E6E 		.ascii	"connLatency\000"
 4301      4C617465 
 4301      6E637900 
 4302              	.LASF178:
 4303 2298 4359424C 		.ascii	"CYBLE_GAP_AUTH_ERROR_NUMERIC_COMPARISON_FAILED\000"
 4303      455F4741 
 4303      505F4155 
 4303      54485F45 
 4303      52524F52 
 4304              	.LASF162:
 4305 22c7 4359424C 		.ascii	"CYBLE_GAP_IOCAP_DISPLAY_YESNO\000"
 4305      455F4741 
 4305      505F494F 
 4305      4341505F 
 4305      44495350 
 4306              	.LASF36:
 4307 22e5 4359424C 		.ascii	"CYBLE_EVT_GAP_KEYINFO_EXCHNGE_CMPLT\000"
 4307      455F4556 
 4307      545F4741 
 4307      505F4B45 
 4307      59494E46 
 4308              	.LASF218:
 4309 2309 4359424C 		.ascii	"CYBLE_GATT_EXECUTE_WRITE_REQ\000"
 4309      455F4741 
 4309      54545F45 
 4309      58454355 
 4309      54455F57 
 4310              	.LASF140:
 4311 2326 4359424C 		.ascii	"CYBLE_BLESS_PWR_IN_DB_T\000"
 4311      455F424C 
 4311      4553535F 
 4311      5057525F 
 4311      494E5F44 
 4312              	.LASF136:
 4313 233e 4359424C 		.ascii	"CYBLE_LL_MAX_CH_TYPE\000"
 4313      455F4C4C 
 4313      5F4D4158 
 4313      5F43485F 
 4313      54595045 
 4314              	.LASF73:
 4315 2353 4359424C 		.ascii	"CYBLE_EVT_L2CAP_CONN_PARAM_UPDATE_REQ\000"
ARM GAS  C:\Users\ADMINI~1\AppData\Local\Temp\ccMaTind.s 			page 137


 4315      455F4556 
 4315      545F4C32 
 4315      4341505F 
 4315      434F4E4E 
 4316              	.LASF143:
 4317 2379 4359424C 		.ascii	"CYBLE_PROTOCOL_REQ_T\000"
 4317      455F5052 
 4317      4F544F43 
 4317      4F4C5F52 
 4317      45515F54 
 4318              	.LASF306:
 4319 238e 67617474 		.ascii	"gattErr\000"
 4319      45727200 
 4320              	.LASF228:
 4321 2396 4359424C 		.ascii	"CYBLE_GATT_ERR_WRITE_NOT_PERMITTED\000"
 4321      455F4741 
 4321      54545F45 
 4321      52525F57 
 4321      52495445 
 4322              	.LASF192:
 4323 23b9 636F6E6E 		.ascii	"connIntv\000"
 4323      496E7476 
 4323      00
 4324              	.LASF3:
 4325 23c2 73686F72 		.ascii	"short unsigned int\000"
 4325      7420756E 
 4325      7369676E 
 4325      65642069 
 4325      6E7400
 4326              	.LASF240:
 4327 23d5 4359424C 		.ascii	"CYBLE_GATT_ERR_INSUFFICIENT_ENCRYPTION\000"
 4327      455F4741 
 4327      54545F45 
 4327      52525F49 
 4327      4E535546 
 4328              	.LASF293:
 4329 23fc 4359424C 		.ascii	"CYBLE_STATE_CONNECTED\000"
 4329      455F5354 
 4329      4154455F 
 4329      434F4E4E 
 4329      45435445 
 4330              	.LASF269:
 4331 2412 61637475 		.ascii	"actualLen\000"
 4331      616C4C65 
 4331      6E00
 4332              	.LASF211:
 4333 241c 4359424C 		.ascii	"CYBLE_GATT_READ_BY_GROUP_REQ\000"
 4333      455F4741 
 4333      54545F52 
 4333      4541445F 
 4333      42595F47 
 4334              	.LASF267:
 4335 2439 61747449 		.ascii	"attId\000"
 4335      6400
 4336              	.LASF91:
 4337 243f 4359424C 		.ascii	"CYBLE_ERROR_INVALID_OPERATION\000"
 4337      455F4552 
ARM GAS  C:\Users\ADMINI~1\AppData\Local\Temp\ccMaTind.s 			page 138


 4337      524F525F 
 4337      494E5641 
 4337      4C49445F 
 4338              	.LASF21:
 4339 245d 4359424C 		.ascii	"CYBLE_EVT_HCI_STATUS\000"
 4339      455F4556 
 4339      545F4843 
 4339      495F5354 
 4339      41545553 
 4340              	.LASF50:
 4341 2472 4359424C 		.ascii	"CYBLE_EVT_GATT_DISCONNECT_IND\000"
 4341      455F4556 
 4341      545F4741 
 4341      54545F44 
 4341      4953434F 
 4342              	.LASF194:
 4343 2490 73757065 		.ascii	"supervisionTO\000"
 4343      72766973 
 4343      696F6E54 
 4343      4F00
 4344              	.LASF153:
 4345 249e 4359424C 		.ascii	"CYBLE_GATT_RSP_TO\000"
 4345      455F4741 
 4345      54545F52 
 4345      53505F54 
 4345      4F00
 4346              	.LASF83:
 4347 24b0 4359424C 		.ascii	"CYBLE_EVT_L2CAP_CBFC_DATA_WRITE_IND\000"
 4347      455F4556 
 4347      545F4C32 
 4347      4341505F 
 4347      43424643 
 4348              	.LASF72:
 4349 24d4 4359424C 		.ascii	"CYBLE_EVT_GATTC_LONG_PROCEDURE_END\000"
 4349      455F4556 
 4349      545F4741 
 4349      5454435F 
 4349      4C4F4E47 
 4350              	.LASF32:
 4351 24f7 4359424C 		.ascii	"CYBLE_EVT_GAP_DEVICE_DISCONNECTED\000"
 4351      455F4556 
 4351      545F4741 
 4351      505F4445 
 4351      56494345 
 4352              	.LASF68:
 4353 2519 4359424C 		.ascii	"CYBLE_EVT_GATTS_HANDLE_VALUE_CNF\000"
 4353      455F4556 
 4353      545F4741 
 4353      5454535F 
 4353      48414E44 
 4354              	.LASF10:
 4355 253a 75696E74 		.ascii	"uint16\000"
 4355      313600
 4356              	.LASF99:
 4357 2541 4359424C 		.ascii	"CYBLE_ERROR_TX_POWER_READ\000"
 4357      455F4552 
 4357      524F525F 
ARM GAS  C:\Users\ADMINI~1\AppData\Local\Temp\ccMaTind.s 			page 139


 4357      54585F50 
 4357      4F574552 
 4358              		.ident	"GCC: (GNU Tools for ARM Embedded Processors) 5.4.1 20160609 (release) [ARM/embedded-5-bran
