ARM GAS  C:\Users\ADMINI~1\AppData\Local\Temp\ccYznZen.s 			page 1


   1              		.syntax unified
   2              		.cpu cortex-m0
   3              		.fpu softvfp
   4              		.eabi_attribute 20, 1
   5              		.eabi_attribute 21, 1
   6              		.eabi_attribute 23, 3
   7              		.eabi_attribute 24, 1
   8              		.eabi_attribute 25, 1
   9              		.eabi_attribute 26, 1
  10              		.eabi_attribute 30, 1
  11              		.eabi_attribute 34, 0
  12              		.eabi_attribute 18, 4
  13              		.thumb
  14              		.syntax unified
  15              		.file	"main.c"
  16              		.text
  17              	.Ltext0:
  18              		.cfi_sections	.debug_frame
  19              		.section	.text.WDT_Handly,"ax",%progbits
  20              		.align	2
  21              		.global	WDT_Handly
  22              		.code	16
  23              		.thumb_func
  24              		.type	WDT_Handly, %function
  25              	WDT_Handly:
  26              	.LFB36:
  27              		.file 1 "main.c"
   1:main.c        **** /* ========================================
   2:main.c        ****  *
   3:main.c        ****  * Copyright YOUR COMPANY, THE YEAR
   4:main.c        ****  * All Rights Reserved
   5:main.c        ****  * UNPUBLISHED, LICENSED SOFTWARE.
   6:main.c        ****  *
   7:main.c        ****  * CONFIDENTIAL AND PROPRIETARY INFORMATION
   8:main.c        ****  * WHICH IS THE PROPERTY OF your company.
   9:main.c        ****  *
  10:main.c        ****  * ========================================
  11:main.c        **** */
  12:main.c        **** #include "project.h"
  13:main.c        **** 
  14:main.c        **** #define OFF 1
  15:main.c        **** #define ON  0
  16:main.c        **** 
  17:main.c        **** #if 0
  18:main.c        **** #define LED_RED
  19:main.c        **** #define LED_GREEN
  20:main.c        **** #define LED_BLUE
  21:main.c        **** 
  22:main.c        **** #define LED_TOGGLE_DELAY_MS 200	
  23:main.c        **** 	
  24:main.c        **** void LED_Write(uint8 LED_Color, uint8 LED_NewDataReg);
  25:main.c        **** void LED_Toggle(uint8 LED_Color, uint8 numToggles)
  26:main.c        **** #endif 
  27:main.c        **** 
  28:main.c        **** #define WDT_COUNT0_MATCH    (0x4000u)
  29:main.c        **** 
  30:main.c        **** CYBLE_API_RESULT_T apiResult;
ARM GAS  C:\Users\ADMINI~1\AppData\Local\Temp\ccYznZen.s 			page 2


  31:main.c        **** 
  32:main.c        **** CY_ISR(WDT_Handly);
  33:main.c        **** void AppCallBack(uint32 event, void* eventParam);
  34:main.c        **** void ManageSystemPower();
  35:main.c        **** 
  36:main.c        **** 
  37:main.c        **** int main(void)
  38:main.c        **** {
  39:main.c        **** 	
  40:main.c        **** 	LED_Status_Write(0);
  41:main.c        **** 	CyDelay(200);
  42:main.c        **** 	LED_Status_Write(1);
  43:main.c        **** 	CyDelay(200);
  44:main.c        **** 	
  45:main.c        **** 	isr_WDT_StartEx(WDT_Handly);
  46:main.c        **** 	
  47:main.c        **** 	CyGlobalIntEnable;
  48:main.c        **** 	
  49:main.c        **** 	//CySysClkEcoStop();
  50:main.c        **** 	//CySysClkImoStop();
  51:main.c        **** 	//CySysClkWcoStop();
  52:main.c        ****     
  53:main.c        **** 	
  54:main.c        **** 	CySysWdtWriteMode(CY_SYS_WDT_COUNTER0,CY_SYS_WDT_MODE_INT);
  55:main.c        **** 	CySysWdtWriteMatch(CY_SYS_WDT_COUNTER0,WDT_COUNT0_MATCH);
  56:main.c        **** 	CySysWdtWriteClearOnMatch(CY_SYS_WDT_COUNTER0, 1u);
  57:main.c        **** 	
  58:main.c        **** 	CySysWdtEnable(CY_SYS_WDT_COUNTER0_MASK);
  59:main.c        **** 	#if 0
  60:main.c        ****     //关闭看门狗之前要上锁；
  61:main.c        **** 	CySysWdtLock();
  62:main.c        **** 	CySysWdtDisable(CY_SYS_WDT_COUNTER1_MASK);
  63:main.c        **** 	CySysWdtUnlock();
  64:main.c        ****     #endif
  65:main.c        **** 	//配置协议栈，开启蓝牙；
  66:main.c        **** 	apiResult = CyBle_Start(AppCallBack);
  67:main.c        ****       while (CyBle_GetState() == CYBLE_STATE_INITIALIZING)
  68:main.c        ****     {
  69:main.c        ****         CyBle_ProcessEvents(); 
  70:main.c        ****     }
  71:main.c        ****     //配置Deppsleep；
  72:main.c        **** 	CySysClkIloStop();
  73:main.c        **** 	CySysClkWriteEcoDiv(CY_SYS_CLK_ECO_DIV8);
  74:main.c        **** 	
  75:main.c        **** 	
  76:main.c        **** 	for(;;)
  77:main.c        ****     {	
  78:main.c        ****      CyBle_ProcessEvents();   
  79:main.c        ****      CyBle_EnterLPM(CYBLE_BLESS_DEEPSLEEP);
  80:main.c        **** 	 ManageSystemPower();
  81:main.c        **** 	
  82:main.c        **** 	}
  83:main.c        **** }
  84:main.c        **** CY_ISR(WDT_Handly)
  85:main.c        **** {
  28              		.loc 1 85 0
  29              		.cfi_startproc
ARM GAS  C:\Users\ADMINI~1\AppData\Local\Temp\ccYznZen.s 			page 3


  30              		@ args = 0, pretend = 0, frame = 0
  31              		@ frame_needed = 0, uses_anonymous_args = 0
  32 0000 10B5     		push	{r4, lr}
  33              		.cfi_def_cfa_offset 8
  34              		.cfi_offset 4, -8
  35              		.cfi_offset 14, -4
  86:main.c        **** 	CySysWdtClearInterrupt(CY_SYS_WDT_COUNTER0_INT);
  36              		.loc 1 86 0
  37 0002 0420     		movs	r0, #4
  38 0004 FFF7FEFF 		bl	CySysWdtClearInterrupt
  39              	.LVL0:
  87:main.c        ****     isr_WDT_ClearPending();
  40              		.loc 1 87 0
  41 0008 FFF7FEFF 		bl	isr_WDT_ClearPending
  42              	.LVL1:
  88:main.c        **** 	//
  89:main.c        **** 	LED_Status_Write(~(LED_Status_Read()));
  43              		.loc 1 89 0
  44 000c FFF7FEFF 		bl	LED_Status_Read
  45              	.LVL2:
  46 0010 C043     		mvns	r0, r0
  47 0012 C0B2     		uxtb	r0, r0
  48 0014 FFF7FEFF 		bl	LED_Status_Write
  49              	.LVL3:
  90:main.c        **** 
  91:main.c        ****    }
  50              		.loc 1 91 0
  51              		@ sp needed
  52 0018 10BD     		pop	{r4, pc}
  53              		.cfi_endproc
  54              	.LFE36:
  55              		.size	WDT_Handly, .-WDT_Handly
  56 001a C046     		.section	.text.AppCallBack,"ax",%progbits
  57              		.align	2
  58              		.global	AppCallBack
  59              		.code	16
  60              		.thumb_func
  61              		.type	AppCallBack, %function
  62              	AppCallBack:
  63              	.LFB37:
  92:main.c        **** 
  93:main.c        **** 
  94:main.c        **** void AppCallBack(uint32 event, void* eventParam)
  95:main.c        **** {
  64              		.loc 1 95 0
  65              		.cfi_startproc
  66              		@ args = 0, pretend = 0, frame = 0
  67              		@ frame_needed = 0, uses_anonymous_args = 0
  68              	.LVL4:
  69 0000 10B5     		push	{r4, lr}
  70              		.cfi_def_cfa_offset 8
  71              		.cfi_offset 4, -8
  72              		.cfi_offset 14, -4
  96:main.c        ****     uint32 register_value;
  97:main.c        ****     CYBLE_BLESS_CLK_CFG_PARAMS_T clockConfig;
  98:main.c        ****     
  99:main.c        ****     (void)eventParam;
ARM GAS  C:\Users\ADMINI~1\AppData\Local\Temp\ccYznZen.s 			page 4


 100:main.c        ****     
 101:main.c        ****     switch(event)
  73              		.loc 1 101 0
  74 0002 0128     		cmp	r0, #1
  75 0004 01D0     		beq	.L4
  76 0006 2828     		cmp	r0, #40
  77 0008 04D1     		bne	.L2
  78              	.L4:
 102:main.c        ****     {
 103:main.c        ****         case CYBLE_EVT_GAP_DEVICE_DISCONNECTED:
 104:main.c        ****         
 105:main.c        **** 		case CYBLE_EVT_STACK_ON:
 106:main.c        ****             apiResult = CyBle_GappStartAdvertisement(CYBLE_ADVERTISING_FAST);
  79              		.loc 1 106 0
  80 000a 0020     		movs	r0, #0
  81              	.LVL5:
  82 000c FFF7FEFF 		bl	CyBle_GappStartAdvertisement
  83              	.LVL6:
  84 0010 014B     		ldr	r3, .L5
  85 0012 1880     		strh	r0, [r3]
  86              	.L2:
 107:main.c        ****             break;     
 108:main.c        ****         default:
 109:main.c        ****             break;
 110:main.c        ****     }
 111:main.c        **** }
  87              		.loc 1 111 0
  88              		@ sp needed
  89 0014 10BD     		pop	{r4, pc}
  90              	.L6:
  91 0016 C046     		.align	2
  92              	.L5:
  93 0018 00000000 		.word	apiResult
  94              		.cfi_endproc
  95              	.LFE37:
  96              		.size	AppCallBack, .-AppCallBack
  97              		.section	.text.ManageSystemPower,"ax",%progbits
  98              		.align	2
  99              		.global	ManageSystemPower
 100              		.code	16
 101              		.thumb_func
 102              		.type	ManageSystemPower, %function
 103              	ManageSystemPower:
 104              	.LFB38:
 112:main.c        **** 
 113:main.c        **** 
 114:main.c        **** void ManageSystemPower()
 115:main.c        **** {
 105              		.loc 1 115 0
 106              		.cfi_startproc
 107              		@ args = 0, pretend = 0, frame = 0
 108              		@ frame_needed = 0, uses_anonymous_args = 0
 109 0000 10B5     		push	{r4, lr}
 110              		.cfi_def_cfa_offset 8
 111              		.cfi_offset 4, -8
 112              		.cfi_offset 14, -4
 116:main.c        ****   
ARM GAS  C:\Users\ADMINI~1\AppData\Local\Temp\ccYznZen.s 			page 5


 117:main.c        ****     CYBLE_BLESS_STATE_T blePower;
 118:main.c        ****     uint8 interruptStatus ;
 119:main.c        ****     interruptStatus  = CyEnterCriticalSection();//关闭全局中断//
 113              		.loc 1 119 0
 114 0002 FFF7FEFF 		bl	CyEnterCriticalSection
 115              	.LVL7:
 116 0006 0400     		movs	r4, r0
 117              	.LVL8:
 120:main.c        ****     blePower = CyBle_GetBleSsState();//获取BLE的休眠状态
 118              		.loc 1 120 0
 119 0008 FFF7FEFF 		bl	CyBle_GetBleSsState
 120              	.LVL9:
 121:main.c        ****     if(blePower == CYBLE_BLESS_STATE_DEEPSLEEP|| blePower == CYBLE_BLESS_STATE_ECO_ON)
 121              		.loc 1 121 0
 122 000c 0628     		cmp	r0, #6
 123 000e 01D0     		beq	.L8
 124              		.loc 1 121 0 is_stmt 0 discriminator 1
 125 0010 0428     		cmp	r0, #4
 126 0012 02D1     		bne	.L9
 127              	.L8:
 122:main.c        ****     {
 123:main.c        ****         CySysPmDeepSleep();//如果BLE处于深度睡眠模式，CPU进入深度睡眠模式
 128              		.loc 1 123 0 is_stmt 1
 129 0014 FFF7FEFF 		bl	CySysPmDeepSleep
 130              	.LVL10:
 131 0018 0DE0     		b	.L10
 132              	.LVL11:
 133              	.L9:
 124:main.c        ****     }
 125:main.c        ****     else if((blePower != CYBLE_BLESS_STATE_EVENT_CLOSE))
 134              		.loc 1 125 0
 135 001a 0228     		cmp	r0, #2
 136 001c 0BD0     		beq	.L10
 126:main.c        ****     {
 127:main.c        ****             CySysClkWriteHfclkDirect(CY_SYS_CLK_HFCLK_ECO); 
 137              		.loc 1 127 0
 138 001e 0220     		movs	r0, #2
 139              	.LVL12:
 140 0020 FFF7FEFF 		bl	CySysClkWriteHfclkDirect
 141              	.LVL13:
 128:main.c        ****             CySysClkImoStop();            
 142              		.loc 1 128 0
 143 0024 FFF7FEFF 		bl	CySysClkImoStop
 144              	.LVL14:
 129:main.c        ****             CySysPmSleep();           
 145              		.loc 1 129 0
 146 0028 FFF7FEFF 		bl	CySysPmSleep
 147              	.LVL15:
 130:main.c        ****             CySysClkImoStart();
 148              		.loc 1 130 0
 149 002c FFF7FEFF 		bl	CySysClkImoStart
 150              	.LVL16:
 131:main.c        ****             CySysClkWriteHfclkDirect(CY_SYS_CLK_HFCLK_IMO);
 151              		.loc 1 131 0
 152 0030 0020     		movs	r0, #0
 153 0032 FFF7FEFF 		bl	CySysClkWriteHfclkDirect
 154              	.LVL17:
ARM GAS  C:\Users\ADMINI~1\AppData\Local\Temp\ccYznZen.s 			page 6


 155              	.L10:
 132:main.c        ****     }
 133:main.c        ****     
 134:main.c        ****     CyExitCriticalSection(interruptStatus );
 156              		.loc 1 134 0
 157 0036 2000     		movs	r0, r4
 158 0038 FFF7FEFF 		bl	CyExitCriticalSection
 159              	.LVL18:
 135:main.c        **** 
 136:main.c        **** }
 160              		.loc 1 136 0
 161              		@ sp needed
 162              	.LVL19:
 163 003c 10BD     		pop	{r4, pc}
 164              		.cfi_endproc
 165              	.LFE38:
 166              		.size	ManageSystemPower, .-ManageSystemPower
 167 003e C046     		.section	.text.main,"ax",%progbits
 168              		.align	2
 169              		.global	main
 170              		.code	16
 171              		.thumb_func
 172              		.type	main, %function
 173              	main:
 174              	.LFB35:
  38:main.c        **** 	
 175              		.loc 1 38 0
 176              		.cfi_startproc
 177              		@ Volatile: function does not return.
 178              		@ args = 0, pretend = 0, frame = 0
 179              		@ frame_needed = 0, uses_anonymous_args = 0
 180 0000 10B5     		push	{r4, lr}
 181              		.cfi_def_cfa_offset 8
 182              		.cfi_offset 4, -8
 183              		.cfi_offset 14, -4
  40:main.c        **** 	CyDelay(200);
 184              		.loc 1 40 0
 185 0002 0020     		movs	r0, #0
 186 0004 FFF7FEFF 		bl	LED_Status_Write
 187              	.LVL20:
  41:main.c        **** 	LED_Status_Write(1);
 188              		.loc 1 41 0
 189 0008 C820     		movs	r0, #200
 190 000a FFF7FEFF 		bl	CyDelay
 191              	.LVL21:
  42:main.c        **** 	CyDelay(200);
 192              		.loc 1 42 0
 193 000e 0120     		movs	r0, #1
 194 0010 FFF7FEFF 		bl	LED_Status_Write
 195              	.LVL22:
  43:main.c        **** 	
 196              		.loc 1 43 0
 197 0014 C820     		movs	r0, #200
 198 0016 FFF7FEFF 		bl	CyDelay
 199              	.LVL23:
  45:main.c        **** 	
 200              		.loc 1 45 0
ARM GAS  C:\Users\ADMINI~1\AppData\Local\Temp\ccYznZen.s 			page 7


 201 001a 1648     		ldr	r0, .L15
 202 001c FFF7FEFF 		bl	isr_WDT_StartEx
 203              	.LVL24:
  47:main.c        **** 	
 204              		.loc 1 47 0
 205              		.syntax divided
 206              	@ 47 "main.c" 1
 207 0020 62B6     		CPSIE   i
 208              	@ 0 "" 2
  54:main.c        **** 	CySysWdtWriteMatch(CY_SYS_WDT_COUNTER0,WDT_COUNT0_MATCH);
 209              		.loc 1 54 0
 210              		.thumb
 211              		.syntax unified
 212 0022 0121     		movs	r1, #1
 213 0024 0020     		movs	r0, #0
 214 0026 FFF7FEFF 		bl	CySysWdtSetMode
 215              	.LVL25:
  55:main.c        **** 	CySysWdtWriteClearOnMatch(CY_SYS_WDT_COUNTER0, 1u);
 216              		.loc 1 55 0
 217 002a 8021     		movs	r1, #128
 218 002c C901     		lsls	r1, r1, #7
 219 002e 0020     		movs	r0, #0
 220 0030 FFF7FEFF 		bl	CySysWdtSetMatch
 221              	.LVL26:
  56:main.c        **** 	
 222              		.loc 1 56 0
 223 0034 0121     		movs	r1, #1
 224 0036 0020     		movs	r0, #0
 225 0038 FFF7FEFF 		bl	CySysWdtSetClearOnMatch
 226              	.LVL27:
  58:main.c        **** 	#if 0
 227              		.loc 1 58 0
 228 003c 0120     		movs	r0, #1
 229 003e FFF7FEFF 		bl	CySysWdtEnable
 230              	.LVL28:
  66:main.c        ****       while (CyBle_GetState() == CYBLE_STATE_INITIALIZING)
 231              		.loc 1 66 0
 232 0042 0D48     		ldr	r0, .L15+4
 233 0044 FFF7FEFF 		bl	CyBle_Start
 234              	.LVL29:
 235 0048 0C4B     		ldr	r3, .L15+8
 236 004a 1880     		strh	r0, [r3]
  67:main.c        ****     {
 237              		.loc 1 67 0
 238 004c 01E0     		b	.L12
 239              	.L13:
  69:main.c        ****     }
 240              		.loc 1 69 0
 241 004e FFF7FEFF 		bl	CyBle_ProcessEvents
 242              	.LVL30:
 243              	.L12:
  67:main.c        ****     {
 244              		.loc 1 67 0
 245 0052 0B4B     		ldr	r3, .L15+12
 246 0054 1B78     		ldrb	r3, [r3]
 247 0056 012B     		cmp	r3, #1
 248 0058 F9D0     		beq	.L13
ARM GAS  C:\Users\ADMINI~1\AppData\Local\Temp\ccYznZen.s 			page 8


  72:main.c        **** 	CySysClkWriteEcoDiv(CY_SYS_CLK_ECO_DIV8);
 249              		.loc 1 72 0
 250 005a FFF7FEFF 		bl	CySysClkIloStop
 251              	.LVL31:
  73:main.c        **** 	
 252              		.loc 1 73 0
 253 005e 0320     		movs	r0, #3
 254 0060 FFF7FEFF 		bl	CySysClkWriteEcoDiv
 255              	.LVL32:
 256              	.L14:
  78:main.c        ****      CyBle_EnterLPM(CYBLE_BLESS_DEEPSLEEP);
 257              		.loc 1 78 0 discriminator 1
 258 0064 FFF7FEFF 		bl	CyBle_ProcessEvents
 259              	.LVL33:
  79:main.c        **** 	 ManageSystemPower();
 260              		.loc 1 79 0 discriminator 1
 261 0068 0320     		movs	r0, #3
 262 006a FFF7FEFF 		bl	CyBle_EnterLPM
 263              	.LVL34:
  80:main.c        **** 	
 264              		.loc 1 80 0 discriminator 1
 265 006e FFF7FEFF 		bl	ManageSystemPower
 266              	.LVL35:
 267 0072 F7E7     		b	.L14
 268              	.L16:
 269              		.align	2
 270              	.L15:
 271 0074 00000000 		.word	WDT_Handly
 272 0078 00000000 		.word	AppCallBack
 273 007c 00000000 		.word	apiResult
 274 0080 00000000 		.word	cyBle_state
 275              		.cfi_endproc
 276              	.LFE35:
 277              		.size	main, .-main
 278              		.comm	apiResult,2,2
 279              		.text
 280              	.Letext0:
 281              		.file 2 "Generated_Source\\PSoC4/cytypes.h"
 282              		.file 3 "Generated_Source\\PSoC4/BLE_1_Stack.h"
 283              		.file 4 "Generated_Source\\PSoC4/BLE_1_eventHandler.h"
 284              		.file 5 "Generated_Source\\PSoC4/CyLFClk.h"
 285              		.file 6 "Generated_Source\\PSoC4/isr_WDT.h"
 286              		.file 7 "Generated_Source\\PSoC4/LED_Status.h"
 287              		.file 8 "Generated_Source\\PSoC4/BLE_1.h"
 288              		.file 9 "Generated_Source\\PSoC4/CyLib.h"
 289              		.file 10 "Generated_Source\\PSoC4/cyPm.h"